
F:\PHD\Arduino_Projects\LasterCtrl\Laster_Controller_v9.0\Laster_Controller.ino.hex:     file format ihex


Disassembly of section .sec1:

00000000 <.sec1>:
       0:	0c 94 8d 01 	jmp	0x31a	;  0x31a
       4:	0c 94 be 01 	jmp	0x37c	;  0x37c
       8:	0c 94 be 01 	jmp	0x37c	;  0x37c
       c:	0c 94 be 01 	jmp	0x37c	;  0x37c
      10:	0c 94 be 01 	jmp	0x37c	;  0x37c
      14:	0c 94 be 01 	jmp	0x37c	;  0x37c
      18:	0c 94 be 01 	jmp	0x37c	;  0x37c
      1c:	0c 94 be 01 	jmp	0x37c	;  0x37c
      20:	0c 94 be 01 	jmp	0x37c	;  0x37c
      24:	0c 94 be 01 	jmp	0x37c	;  0x37c
      28:	0c 94 be 01 	jmp	0x37c	;  0x37c
      2c:	0c 94 be 01 	jmp	0x37c	;  0x37c
      30:	0c 94 be 01 	jmp	0x37c	;  0x37c
      34:	0c 94 be 01 	jmp	0x37c	;  0x37c
      38:	0c 94 be 01 	jmp	0x37c	;  0x37c
      3c:	0c 94 be 01 	jmp	0x37c	;  0x37c
      40:	0c 94 be 01 	jmp	0x37c	;  0x37c
      44:	0c 94 be 01 	jmp	0x37c	;  0x37c
      48:	0c 94 be 01 	jmp	0x37c	;  0x37c
      4c:	0c 94 be 01 	jmp	0x37c	;  0x37c
      50:	0c 94 be 01 	jmp	0x37c	;  0x37c
      54:	0c 94 be 01 	jmp	0x37c	;  0x37c
      58:	0c 94 be 01 	jmp	0x37c	;  0x37c
      5c:	0c 94 d8 0a 	jmp	0x15b0	;  0x15b0
      60:	0c 94 be 01 	jmp	0x37c	;  0x37c
      64:	0c 94 4c 0b 	jmp	0x1698	;  0x1698
      68:	0c 94 22 0b 	jmp	0x1644	;  0x1644
      6c:	0c 94 be 01 	jmp	0x37c	;  0x37c
      70:	0c 94 be 01 	jmp	0x37c	;  0x37c
      74:	0c 94 be 01 	jmp	0x37c	;  0x37c
      78:	0c 94 be 01 	jmp	0x37c	;  0x37c
      7c:	0c 94 be 01 	jmp	0x37c	;  0x37c
      80:	0c 94 be 01 	jmp	0x37c	;  0x37c
      84:	0c 94 be 01 	jmp	0x37c	;  0x37c
      88:	0c 94 be 01 	jmp	0x37c	;  0x37c
      8c:	0c 94 be 01 	jmp	0x37c	;  0x37c
      90:	0c 94 be 01 	jmp	0x37c	;  0x37c
      94:	0c 94 be 01 	jmp	0x37c	;  0x37c
      98:	0c 94 be 01 	jmp	0x37c	;  0x37c
      9c:	0c 94 82 0b 	jmp	0x1704	;  0x1704
      a0:	0c 94 be 01 	jmp	0x37c	;  0x37c
      a4:	0c 94 be 01 	jmp	0x37c	;  0x37c
      a8:	0c 94 be 01 	jmp	0x37c	;  0x37c
      ac:	0c 94 be 01 	jmp	0x37c	;  0x37c
      b0:	0c 94 be 01 	jmp	0x37c	;  0x37c
      b4:	0c 94 be 01 	jmp	0x37c	;  0x37c
      b8:	0c 94 be 01 	jmp	0x37c	;  0x37c
      bc:	0c 94 be 01 	jmp	0x37c	;  0x37c
      c0:	0c 94 be 01 	jmp	0x37c	;  0x37c
      c4:	0c 94 be 01 	jmp	0x37c	;  0x37c
      c8:	0c 94 be 01 	jmp	0x37c	;  0x37c
      cc:	0c 94 be 01 	jmp	0x37c	;  0x37c
      d0:	0c 94 be 01 	jmp	0x37c	;  0x37c
      d4:	0c 94 be 01 	jmp	0x37c	;  0x37c
      d8:	0c 94 be 01 	jmp	0x37c	;  0x37c
      dc:	0c 94 be 01 	jmp	0x37c	;  0x37c
      e0:	0c 94 be 01 	jmp	0x37c	;  0x37c
      e4:	0c 94 32 04 	jmp	0x864	;  0x864
      e8:	0c 94 d9 01 	jmp	0x3b2	;  0x3b2
      ec:	0c 94 3e 03 	jmp	0x67c	;  0x67c
      f0:	0c 94 04 03 	jmp	0x608	;  0x608
      f4:	0c 94 35 03 	jmp	0x66a	;  0x66a
      f8:	0c 94 15 05 	jmp	0xa2a	;  0xa2a
      fc:	0c 94 0e 05 	jmp	0xa1c	;  0xa1c
     100:	0c 94 39 03 	jmp	0x672	;  0x672
     104:	0c 94 fc 01 	jmp	0x3f8	;  0x3f8
     108:	0c 94 1d 03 	jmp	0x63a	;  0x63a
     10c:	0c 94 2b 03 	jmp	0x656	;  0x656
     110:	0c 94 fb 04 	jmp	0x9f6	;  0x9f6
     114:	0c 94 38 02 	jmp	0x470	;  0x470
     118:	0c 94 0a 02 	jmp	0x414	;  0x414
     11c:	0c 94 58 04 	jmp	0x8b0	;  0x8b0
     120:	0c 94 7a 07 	jmp	0xef4	;  0xef4
     124:	0c 94 a6 0c 	jmp	0x194c	;  0x194c
     128:	0c 94 43 03 	jmp	0x686	;  0x686
     12c:	0c 94 e5 06 	jmp	0xdca	;  0xdca
     130:	0c 94 33 04 	jmp	0x866	;  0x866
     134:	0c 94 42 05 	jmp	0xa84	;  0xa84
     138:	0c 94 23 03 	jmp	0x646	;  0x646
     13c:	0c 94 10 03 	jmp	0x620	;  0x620
     140:	0c 94 fe 02 	jmp	0x5fc	;  0x5fc
     144:	0c 94 eb 04 	jmp	0x9d6	;  0x9d6
     148:	0c 94 58 06 	jmp	0xcb0	;  0xcb0
     14c:	0c 94 08 03 	jmp	0x610	;  0x610
     150:	0c 94 e8 01 	jmp	0x3d0	;  0x3d0
     154:	0c 94 0c 03 	jmp	0x618	;  0x618
     158:	0c 94 85 02 	jmp	0x50a	;  0x50a
     15c:	0c 94 13 03 	jmp	0x626	;  0x626
     160:	0c 94 59 06 	jmp	0xcb2	;  0xcb2
     164:	0c 94 19 03 	jmp	0x632	;  0x632
     168:	0c 94 ec 04 	jmp	0x9d8	;  0x9d8
     16c:	0c 94 27 03 	jmp	0x64e	;  0x64e
     170:	0c 94 3f 03 	jmp	0x67e	;  0x67e
     174:	0c 94 31 03 	jmp	0x662	;  0x662
     178:	3e 3e       	cpi	r19, 0xEE	; 238
     17a:	3e 20       	and	r3, r14
     17c:	54 49       	sbci	r21, 0x94	; 148
     17e:	4d 45       	sbci	r20, 0x5D	; 93
     180:	4f 55       	subi	r20, 0x5F	; 95
     182:	54 20       	and	r5, r4
     184:	3e 3e       	cpi	r19, 0xEE	; 238
     186:	3e 00       	.word	0x003e	; ????
     188:	43 6f       	ori	r20, 0xF3	; 243
     18a:	6e 6e       	ori	r22, 0xEE	; 238
     18c:	65 63       	ori	r22, 0x35	; 53
     18e:	74 65       	ori	r23, 0x54	; 84
     190:	64 20       	and	r6, r4
     192:	74 6f       	ori	r23, 0xF4	; 244
     194:	00 46       	sbci	r16, 0x60	; 96
     196:	61 69       	ori	r22, 0x91	; 145
     198:	6c 65       	ori	r22, 0x5C	; 92
     19a:	64 20       	and	r6, r4
     19c:	63 6f       	ori	r22, 0xF3	; 243
     19e:	6e 6e       	ori	r22, 0xEE	; 238
     1a0:	65 63       	ori	r22, 0x35	; 53
     1a2:	74 69       	ori	r23, 0x94	; 148
     1a4:	6e 67       	ori	r22, 0x7E	; 126
     1a6:	20 74       	andi	r18, 0x40	; 64
     1a8:	6f 00       	.word	0x006f	; ????
     1aa:	41 54       	subi	r20, 0x41	; 65
     1ac:	2b 43       	sbci	r18, 0x3B	; 59
     1ae:	57 4a       	sbci	r21, 0xA7	; 167
     1b0:	41 50       	subi	r20, 0x01	; 1
     1b2:	5f 43       	sbci	r21, 0x3F	; 63
     1b4:	55 52       	subi	r21, 0x25	; 37
     1b6:	3d 22       	and	r3, r29
     1b8:	25 73       	andi	r18, 0x35	; 53
     1ba:	22 2c       	mov	r2, r2
     1bc:	22 25       	eor	r18, r2
     1be:	73 22       	and	r7, r19
     1c0:	00 45       	sbci	r16, 0x50	; 80
     1c2:	6e 64       	ori	r22, 0x4E	; 78
     1c4:	20 74       	andi	r18, 0x40	; 64
     1c6:	61 67       	ori	r22, 0x71	; 113
     1c8:	20 6e       	ori	r18, 0xE0	; 224
     1ca:	6f 74       	andi	r22, 0x4F	; 79
     1cc:	20 66       	ori	r18, 0x60	; 96
     1ce:	6f 75       	andi	r22, 0x5F	; 95
     1d0:	6e 64       	ori	r22, 0x4E	; 78
     1d2:	00 4e       	sbci	r16, 0xE0	; 224
     1d4:	6f 20       	and	r6, r15
     1d6:	74 61       	ori	r23, 0x14	; 20
     1d8:	67 20       	and	r6, r7
     1da:	66 6f       	ori	r22, 0xF6	; 246
     1dc:	75 6e       	ori	r23, 0xE5	; 229
     1de:	64 00       	.word	0x0064	; ????
     1e0:	0d 0a       	sbc	r0, r29
     1e2:	00 53       	subi	r16, 0x30	; 48
     1e4:	54 41       	sbci	r21, 0x14	; 20
     1e6:	54 55       	subi	r21, 0x54	; 84
     1e8:	53 3a       	cpi	r21, 0xA3	; 163
     1ea:	00 41       	sbci	r16, 0x10	; 16
     1ec:	54 2b       	or	r21, r20
     1ee:	43 49       	sbci	r20, 0x93	; 147
     1f0:	50 53       	subi	r21, 0x30	; 48
     1f2:	54 41       	sbci	r21, 0x14	; 20
     1f4:	54 55       	subi	r21, 0x54	; 84
     1f6:	53 00       	.word	0x0053	; ????
     1f8:	00 00       	nop
     1fa:	21 00       	.word	0x0021	; ????
     1fc:	24 00       	.word	0x0024	; ????
     1fe:	27 00       	.word	0x0027	; ????
     200:	2a 00       	.word	0x002a	; ????
     202:	2d 00       	.word	0x002d	; ????
     204:	30 00       	.word	0x0030	; ????
     206:	33 00       	.word	0x0033	; ????
     208:	01 01       	movw	r0, r2
     20a:	00 00       	nop
     20c:	04 01       	movw	r0, r8
     20e:	07 01       	movw	r0, r14
     210:	0a 01       	movw	r0, r20
     212:	00 00       	nop
     214:	22 00       	.word	0x0022	; ????
     216:	25 00       	.word	0x0025	; ????
     218:	28 00       	.word	0x0028	; ????
     21a:	2b 00       	.word	0x002b	; ????
     21c:	2e 00       	.word	0x002e	; ????
     21e:	31 00       	.word	0x0031	; ????
     220:	34 00       	.word	0x0034	; ????
     222:	02 01       	movw	r0, r4
     224:	00 00       	nop
     226:	05 01       	movw	r0, r10
     228:	08 01       	movw	r0, r16
     22a:	0b 01       	movw	r0, r22
     22c:	00 00       	nop
     22e:	20 00       	.word	0x0020	; ????
     230:	23 00       	.word	0x0023	; ????
     232:	26 00       	.word	0x0026	; ????
     234:	29 00       	.word	0x0029	; ????
     236:	2c 00       	.word	0x002c	; ????
     238:	2f 00       	.word	0x002f	; ????
     23a:	32 00       	.word	0x0032	; ????
     23c:	00 01       	movw	r0, r0
     23e:	00 00       	nop
     240:	03 01       	movw	r0, r6
     242:	06 01       	movw	r0, r12
     244:	09 01       	movw	r0, r18
     246:	05 05       	cpc	r16, r5
     248:	05 05       	cpc	r16, r5
     24a:	07 05       	cpc	r16, r7
     24c:	08 08       	sbc	r0, r8
     24e:	08 08       	sbc	r0, r8
     250:	02 02       	muls	r16, r18
     252:	02 02       	muls	r16, r18
     254:	0a 0a       	sbc	r0, r26
     256:	08 08       	sbc	r0, r8
     258:	04 04       	cpc	r0, r4
     25a:	04 04       	cpc	r0, r4
     25c:	01 01       	movw	r0, r2
     25e:	01 01       	movw	r0, r2
     260:	01 01       	movw	r0, r2
     262:	01 01       	movw	r0, r2
     264:	03 03       	mulsu	r16, r19
     266:	03 03       	mulsu	r16, r19
     268:	03 03       	mulsu	r16, r19
     26a:	03 03       	mulsu	r16, r19
     26c:	04 07       	cpc	r16, r20
     26e:	07 07       	cpc	r16, r23
     270:	0c 0c       	add	r0, r12
     272:	0c 0c       	add	r0, r12
     274:	0c 0c       	add	r0, r12
     276:	0c 0c       	add	r0, r12
     278:	02 02       	muls	r16, r18
     27a:	02 02       	muls	r16, r18
     27c:	06 06       	cpc	r0, r22
     27e:	06 06       	cpc	r0, r22
     280:	06 06       	cpc	r0, r22
     282:	06 06       	cpc	r0, r22
     284:	0b 0b       	sbc	r16, r27
     286:	0b 0b       	sbc	r16, r27
     288:	0b 0b       	sbc	r16, r27
     28a:	0b 0b       	sbc	r16, r27
     28c:	01 02       	muls	r16, r17
     28e:	10 20       	and	r1, r0
     290:	20 08       	sbc	r2, r0
     292:	08 10       	cpse	r0, r8
     294:	20 40       	sbci	r18, 0x00	; 0
     296:	10 20       	and	r1, r0
     298:	40 80       	ld	r4, Z
     29a:	02 01       	movw	r0, r4
     29c:	02 01       	movw	r0, r4
     29e:	08 04       	cpc	r0, r8
     2a0:	02 01       	movw	r0, r4
     2a2:	01 02       	muls	r16, r17
     2a4:	04 08       	sbc	r0, r4
     2a6:	10 20       	and	r1, r0
     2a8:	40 80       	ld	r4, Z
     2aa:	80 40       	sbci	r24, 0x00	; 0
     2ac:	20 10       	cpse	r2, r0
     2ae:	08 04       	cpc	r0, r8
     2b0:	02 01       	movw	r0, r4
     2b2:	80 04       	cpc	r8, r0
     2b4:	02 01       	movw	r0, r4
     2b6:	80 40       	sbci	r24, 0x00	; 0
     2b8:	20 10       	cpse	r2, r0
     2ba:	08 04       	cpc	r0, r8
     2bc:	02 01       	movw	r0, r4
     2be:	08 04       	cpc	r0, r8
     2c0:	02 01       	movw	r0, r4
     2c2:	01 02       	muls	r16, r17
     2c4:	04 08       	sbc	r0, r4
     2c6:	10 20       	and	r1, r0
     2c8:	40 80       	ld	r4, Z
     2ca:	01 02       	muls	r16, r17
     2cc:	04 08       	sbc	r0, r4
     2ce:	10 20       	and	r1, r0
     2d0:	40 80       	ld	r4, Z
     2d2:	00 00       	nop
     2d4:	0a 0b       	sbc	r16, r26
     2d6:	02 09       	sbc	r16, r2
     2d8:	0c 0d       	add	r16, r12
     2da:	0e 08       	sbc	r0, r14
     2dc:	07 03       	mulsu	r16, r23
     2de:	04 01       	movw	r0, r8
	...
     2fc:	00 00       	nop
     2fe:	12 11       	cpse	r17, r2
     300:	10 00       	.word	0x0010	; ????
	...
     316:	00 00       	nop
     318:	a6 0c       	add	r10, r6
     31a:	11 24       	eor	r1, r1
     31c:	1f be       	out	0x3f, r1	; 63
     31e:	cf ef       	ldi	r28, 0xFF	; 255
     320:	d1 e2       	ldi	r29, 0x21	; 33
     322:	de bf       	out	0x3e, r29	; 62
     324:	cd bf       	out	0x3d, r28	; 61
     326:	00 e0       	ldi	r16, 0x00	; 0
     328:	0c bf       	out	0x3c, r16	; 60
     32a:	24 e0       	ldi	r18, 0x04	; 4
     32c:	a4 e1       	ldi	r26, 0x14	; 20
     32e:	b3 e0       	ldi	r27, 0x03	; 3
     330:	01 c0       	rjmp	.+2      	;  0x334
     332:	1d 92       	st	X+, r1
     334:	a6 3c       	cpi	r26, 0xC6	; 198
     336:	b2 07       	cpc	r27, r18
     338:	e1 f7       	brne	.-8      	;  0x332
     33a:	13 e0       	ldi	r17, 0x03	; 3
     33c:	a0 e0       	ldi	r26, 0x00	; 0
     33e:	b2 e0       	ldi	r27, 0x02	; 2
     340:	ec e1       	ldi	r30, 0x1C	; 28
     342:	fc e2       	ldi	r31, 0x2C	; 44
     344:	00 e0       	ldi	r16, 0x00	; 0
     346:	0b bf       	out	0x3b, r16	; 59
     348:	02 c0       	rjmp	.+4      	;  0x34e
     34a:	07 90       	elpm	r0, Z+
     34c:	0d 92       	st	X+, r0
     34e:	a4 31       	cpi	r26, 0x14	; 20
     350:	b1 07       	cpc	r27, r17
     352:	d9 f7       	brne	.-10     	;  0x34a
     354:	11 e0       	ldi	r17, 0x01	; 1
     356:	cd e8       	ldi	r28, 0x8D	; 141
     358:	d1 e0       	ldi	r29, 0x01	; 1
     35a:	00 e0       	ldi	r16, 0x00	; 0
     35c:	06 c0       	rjmp	.+12     	;  0x36a
     35e:	21 97       	sbiw	r28, 0x01	; 1
     360:	01 09       	sbc	r16, r1
     362:	80 2f       	mov	r24, r16
     364:	fe 01       	movw	r30, r28
     366:	0e 94 cf 13 	call	0x279e	;  0x279e
     36a:	cc 38       	cpi	r28, 0x8C	; 140
     36c:	d1 07       	cpc	r29, r17
     36e:	80 e0       	ldi	r24, 0x00	; 0
     370:	08 07       	cpc	r16, r24
     372:	a9 f7       	brne	.-22     	;  0x35e
     374:	0e 94 42 0d 	call	0x1a84	;  0x1a84
     378:	0c 94 0c 16 	jmp	0x2c18	;  0x2c18
     37c:	0c 94 00 00 	jmp	0	;  0x0
     380:	e0 91 00 00 	lds	r30, 0x0000	;  0x800000
     384:	f0 91 01 00 	lds	r31, 0x0001	;  0x800001
     388:	00 84       	ldd	r0, Z+8	; 0x08
     38a:	f1 85       	ldd	r31, Z+9	; 0x09
     38c:	e0 2d       	mov	r30, r0
     38e:	90 e0       	ldi	r25, 0x00	; 0
     390:	80 e0       	ldi	r24, 0x00	; 0
     392:	19 95       	eicall
     394:	18 16       	cp	r1, r24
     396:	19 06       	cpc	r1, r25
     398:	5c f4       	brge	.+22     	;  0x3b0
     39a:	e0 91 00 00 	lds	r30, 0x0000	;  0x800000
     39e:	f0 91 01 00 	lds	r31, 0x0001	;  0x800001
     3a2:	02 84       	ldd	r0, Z+10	; 0x0a
     3a4:	f3 85       	ldd	r31, Z+11	; 0x0b
     3a6:	e0 2d       	mov	r30, r0
     3a8:	90 e0       	ldi	r25, 0x00	; 0
     3aa:	80 e0       	ldi	r24, 0x00	; 0
     3ac:	19 95       	eicall
     3ae:	e8 cf       	rjmp	.-48     	;  0x380
     3b0:	08 95       	ret
     3b2:	fc 01       	movw	r30, r24
     3b4:	53 8d       	ldd	r21, Z+27	; 0x1b
     3b6:	44 8d       	ldd	r20, Z+28	; 0x1c
     3b8:	25 2f       	mov	r18, r21
     3ba:	30 e0       	ldi	r19, 0x00	; 0
     3bc:	84 2f       	mov	r24, r20
     3be:	90 e0       	ldi	r25, 0x00	; 0
     3c0:	82 1b       	sub	r24, r18
     3c2:	93 0b       	sbc	r25, r19
     3c4:	54 17       	cp	r21, r20
     3c6:	10 f0       	brcs	.+4      	;  0x3cc
     3c8:	cf 96       	adiw	r24, 0x3f	; 63
     3ca:	08 95       	ret
     3cc:	01 97       	sbiw	r24, 0x01	; 1
     3ce:	08 95       	ret
     3d0:	fc 01       	movw	r30, r24
     3d2:	91 8d       	ldd	r25, Z+25	; 0x19
     3d4:	82 8d       	ldd	r24, Z+26	; 0x1a
     3d6:	98 17       	cp	r25, r24
     3d8:	61 f0       	breq	.+24     	;  0x3f2
     3da:	a2 8d       	ldd	r26, Z+26	; 0x1a
     3dc:	ae 0f       	add	r26, r30
     3de:	bf 2f       	mov	r27, r31
     3e0:	b1 1d       	adc	r27, r1
     3e2:	5d 96       	adiw	r26, 0x1d	; 29
     3e4:	8c 91       	ld	r24, X
     3e6:	92 8d       	ldd	r25, Z+26	; 0x1a
     3e8:	9f 5f       	subi	r25, 0xFF	; 255
     3ea:	9f 73       	andi	r25, 0x3F	; 63
     3ec:	92 8f       	std	Z+26, r25	; 0x1a
     3ee:	90 e0       	ldi	r25, 0x00	; 0
     3f0:	08 95       	ret
     3f2:	8f ef       	ldi	r24, 0xFF	; 255
     3f4:	9f ef       	ldi	r25, 0xFF	; 255
     3f6:	08 95       	ret
     3f8:	fc 01       	movw	r30, r24
     3fa:	91 8d       	ldd	r25, Z+25	; 0x19
     3fc:	82 8d       	ldd	r24, Z+26	; 0x1a
     3fe:	98 17       	cp	r25, r24
     400:	31 f0       	breq	.+12     	;  0x40e
     402:	82 8d       	ldd	r24, Z+26	; 0x1a
     404:	e8 0f       	add	r30, r24
     406:	f1 1d       	adc	r31, r1
     408:	85 8d       	ldd	r24, Z+29	; 0x1d
     40a:	90 e0       	ldi	r25, 0x00	; 0
     40c:	08 95       	ret
     40e:	8f ef       	ldi	r24, 0xFF	; 255
     410:	9f ef       	ldi	r25, 0xFF	; 255
     412:	08 95       	ret
     414:	fc 01       	movw	r30, r24
     416:	91 8d       	ldd	r25, Z+25	; 0x19
     418:	22 8d       	ldd	r18, Z+26	; 0x1a
     41a:	89 2f       	mov	r24, r25
     41c:	90 e0       	ldi	r25, 0x00	; 0
     41e:	80 5c       	subi	r24, 0xC0	; 192
     420:	9f 4f       	sbci	r25, 0xFF	; 255
     422:	82 1b       	sub	r24, r18
     424:	91 09       	sbc	r25, r1
     426:	8f 73       	andi	r24, 0x3F	; 63
     428:	99 27       	eor	r25, r25
     42a:	08 95       	ret
     42c:	fc 01       	movw	r30, r24
     42e:	a4 8d       	ldd	r26, Z+28	; 0x1c
     430:	a8 0f       	add	r26, r24
     432:	b9 2f       	mov	r27, r25
     434:	b1 1d       	adc	r27, r1
     436:	a3 5a       	subi	r26, 0xA3	; 163
     438:	bf 4f       	sbci	r27, 0xFF	; 255
     43a:	2c 91       	ld	r18, X
     43c:	84 8d       	ldd	r24, Z+28	; 0x1c
     43e:	90 e0       	ldi	r25, 0x00	; 0
     440:	01 96       	adiw	r24, 0x01	; 1
     442:	8f 73       	andi	r24, 0x3F	; 63
     444:	99 27       	eor	r25, r25
     446:	84 8f       	std	Z+28, r24	; 0x1c
     448:	a6 89       	ldd	r26, Z+22	; 0x16
     44a:	b7 89       	ldd	r27, Z+23	; 0x17
     44c:	2c 93       	st	X, r18
     44e:	a0 89       	ldd	r26, Z+16	; 0x10
     450:	b1 89       	ldd	r27, Z+17	; 0x11
     452:	8c 91       	ld	r24, X
     454:	83 70       	andi	r24, 0x03	; 3
     456:	80 64       	ori	r24, 0x40	; 64
     458:	8c 93       	st	X, r24
     45a:	93 8d       	ldd	r25, Z+27	; 0x1b
     45c:	84 8d       	ldd	r24, Z+28	; 0x1c
     45e:	98 13       	cpse	r25, r24
     460:	06 c0       	rjmp	.+12     	;  0x46e
     462:	02 88       	ldd	r0, Z+18	; 0x12
     464:	f3 89       	ldd	r31, Z+19	; 0x13
     466:	e0 2d       	mov	r30, r0
     468:	80 81       	ld	r24, Z
     46a:	8f 7d       	andi	r24, 0xDF	; 223
     46c:	80 83       	st	Z, r24
     46e:	08 95       	ret
     470:	ef 92       	push	r14
     472:	ff 92       	push	r15
     474:	0f 93       	push	r16
     476:	1f 93       	push	r17
     478:	cf 93       	push	r28
     47a:	df 93       	push	r29
     47c:	ec 01       	movw	r28, r24
     47e:	81 e0       	ldi	r24, 0x01	; 1
     480:	88 8f       	std	Y+24, r24	; 0x18
     482:	9b 8d       	ldd	r25, Y+27	; 0x1b
     484:	8c 8d       	ldd	r24, Y+28	; 0x1c
     486:	98 13       	cpse	r25, r24
     488:	1a c0       	rjmp	.+52     	;  0x4be
     48a:	e8 89       	ldd	r30, Y+16	; 0x10
     48c:	f9 89       	ldd	r31, Y+17	; 0x11
     48e:	80 81       	ld	r24, Z
     490:	85 ff       	sbrs	r24, 5
     492:	15 c0       	rjmp	.+42     	;  0x4be
     494:	9f b7       	in	r25, 0x3f	; 63
     496:	f8 94       	cli
     498:	ee 89       	ldd	r30, Y+22	; 0x16
     49a:	ff 89       	ldd	r31, Y+23	; 0x17
     49c:	60 83       	st	Z, r22
     49e:	e8 89       	ldd	r30, Y+16	; 0x10
     4a0:	f9 89       	ldd	r31, Y+17	; 0x11
     4a2:	80 81       	ld	r24, Z
     4a4:	83 70       	andi	r24, 0x03	; 3
     4a6:	80 64       	ori	r24, 0x40	; 64
     4a8:	80 83       	st	Z, r24
     4aa:	9f bf       	out	0x3f, r25	; 63
     4ac:	81 e0       	ldi	r24, 0x01	; 1
     4ae:	90 e0       	ldi	r25, 0x00	; 0
     4b0:	df 91       	pop	r29
     4b2:	cf 91       	pop	r28
     4b4:	1f 91       	pop	r17
     4b6:	0f 91       	pop	r16
     4b8:	ff 90       	pop	r15
     4ba:	ef 90       	pop	r14
     4bc:	08 95       	ret
     4be:	f6 2e       	mov	r15, r22
     4c0:	0b 8d       	ldd	r16, Y+27	; 0x1b
     4c2:	10 e0       	ldi	r17, 0x00	; 0
     4c4:	0f 5f       	subi	r16, 0xFF	; 255
     4c6:	1f 4f       	sbci	r17, 0xFF	; 255
     4c8:	0f 73       	andi	r16, 0x3F	; 63
     4ca:	11 27       	eor	r17, r17
     4cc:	e0 2e       	mov	r14, r16
     4ce:	8c 8d       	ldd	r24, Y+28	; 0x1c
     4d0:	8e 11       	cpse	r24, r14
     4d2:	0c c0       	rjmp	.+24     	;  0x4ec
     4d4:	0f b6       	in	r0, 0x3f	; 63
     4d6:	07 fc       	sbrc	r0, 7
     4d8:	fa cf       	rjmp	.-12     	;  0x4ce
     4da:	e8 89       	ldd	r30, Y+16	; 0x10
     4dc:	f9 89       	ldd	r31, Y+17	; 0x11
     4de:	80 81       	ld	r24, Z
     4e0:	85 ff       	sbrs	r24, 5
     4e2:	f5 cf       	rjmp	.-22     	;  0x4ce
     4e4:	ce 01       	movw	r24, r28
     4e6:	0e 94 16 02 	call	0x42c	;  0x42c
     4ea:	f1 cf       	rjmp	.-30     	;  0x4ce
     4ec:	eb 8d       	ldd	r30, Y+27	; 0x1b
     4ee:	ec 0f       	add	r30, r28
     4f0:	fd 2f       	mov	r31, r29
     4f2:	f1 1d       	adc	r31, r1
     4f4:	e3 5a       	subi	r30, 0xA3	; 163
     4f6:	ff 4f       	sbci	r31, 0xFF	; 255
     4f8:	f0 82       	st	Z, r15
     4fa:	9f b7       	in	r25, 0x3f	; 63
     4fc:	f8 94       	cli
     4fe:	0b 8f       	std	Y+27, r16	; 0x1b
     500:	ea 89       	ldd	r30, Y+18	; 0x12
     502:	fb 89       	ldd	r31, Y+19	; 0x13
     504:	80 81       	ld	r24, Z
     506:	80 62       	ori	r24, 0x20	; 32
     508:	cf cf       	rjmp	.-98     	;  0x4a8
     50a:	cf 93       	push	r28
     50c:	df 93       	push	r29
     50e:	ec 01       	movw	r28, r24
     510:	88 8d       	ldd	r24, Y+24	; 0x18
     512:	88 23       	and	r24, r24
     514:	b9 f0       	breq	.+46     	;  0x544
     516:	aa 89       	ldd	r26, Y+18	; 0x12
     518:	bb 89       	ldd	r27, Y+19	; 0x13
     51a:	e8 89       	ldd	r30, Y+16	; 0x10
     51c:	f9 89       	ldd	r31, Y+17	; 0x11
     51e:	8c 91       	ld	r24, X
     520:	85 fd       	sbrc	r24, 5
     522:	03 c0       	rjmp	.+6      	;  0x52a
     524:	80 81       	ld	r24, Z
     526:	86 fd       	sbrc	r24, 6
     528:	0d c0       	rjmp	.+26     	;  0x544
     52a:	0f b6       	in	r0, 0x3f	; 63
     52c:	07 fc       	sbrc	r0, 7
     52e:	f7 cf       	rjmp	.-18     	;  0x51e
     530:	8c 91       	ld	r24, X
     532:	85 ff       	sbrs	r24, 5
     534:	f2 cf       	rjmp	.-28     	;  0x51a
     536:	80 81       	ld	r24, Z
     538:	85 ff       	sbrs	r24, 5
     53a:	ed cf       	rjmp	.-38     	;  0x516
     53c:	ce 01       	movw	r24, r28
     53e:	0e 94 16 02 	call	0x42c	;  0x42c
     542:	e9 cf       	rjmp	.-46     	;  0x516
     544:	df 91       	pop	r29
     546:	cf 91       	pop	r28
     548:	08 95       	ret
     54a:	81 ee       	ldi	r24, 0xE1	; 225
     54c:	93 e0       	ldi	r25, 0x03	; 3
     54e:	0e 94 0a 02 	call	0x414	;  0x414
     552:	21 e0       	ldi	r18, 0x01	; 1
     554:	89 2b       	or	r24, r25
     556:	09 f4       	brne	.+2      	;  0x55a
     558:	20 e0       	ldi	r18, 0x00	; 0
     55a:	82 2f       	mov	r24, r18
     55c:	08 95       	ret
     55e:	80 e0       	ldi	r24, 0x00	; 0
     560:	90 e0       	ldi	r25, 0x00	; 0
     562:	89 2b       	or	r24, r25
     564:	29 f0       	breq	.+10     	;  0x570
     566:	0e 94 a5 02 	call	0x54a	;  0x54a
     56a:	81 11       	cpse	r24, r1
     56c:	0e 94 00 00 	call	0	;  0x0
     570:	80 e0       	ldi	r24, 0x00	; 0
     572:	90 e0       	ldi	r25, 0x00	; 0
     574:	89 2b       	or	r24, r25
     576:	49 f0       	breq	.+18     	;  0x58a
     578:	80 e0       	ldi	r24, 0x00	; 0
     57a:	90 e0       	ldi	r25, 0x00	; 0
     57c:	89 2b       	or	r24, r25
     57e:	29 f0       	breq	.+10     	;  0x58a
     580:	0e 94 00 00 	call	0	;  0x0
     584:	81 11       	cpse	r24, r1
     586:	0e 94 00 00 	call	0	;  0x0
     58a:	80 e0       	ldi	r24, 0x00	; 0
     58c:	90 e0       	ldi	r25, 0x00	; 0
     58e:	89 2b       	or	r24, r25
     590:	49 f0       	breq	.+18     	;  0x5a4
     592:	80 e0       	ldi	r24, 0x00	; 0
     594:	90 e0       	ldi	r25, 0x00	; 0
     596:	89 2b       	or	r24, r25
     598:	29 f0       	breq	.+10     	;  0x5a4
     59a:	0e 94 00 00 	call	0	;  0x0
     59e:	81 11       	cpse	r24, r1
     5a0:	0e 94 00 00 	call	0	;  0x0
     5a4:	80 e0       	ldi	r24, 0x00	; 0
     5a6:	90 e0       	ldi	r25, 0x00	; 0
     5a8:	89 2b       	or	r24, r25
     5aa:	49 f0       	breq	.+18     	;  0x5be
     5ac:	80 e0       	ldi	r24, 0x00	; 0
     5ae:	90 e0       	ldi	r25, 0x00	; 0
     5b0:	89 2b       	or	r24, r25
     5b2:	29 f0       	breq	.+10     	;  0x5be
     5b4:	0e 94 00 00 	call	0	;  0x0
     5b8:	81 11       	cpse	r24, r1
     5ba:	0c 94 00 00 	jmp	0	;  0x0
     5be:	08 95       	ret
     5c0:	81 50       	subi	r24, 0x01	; 1
     5c2:	82 31       	cpi	r24, 0x12	; 18
     5c4:	08 f0       	brcs	.+2      	;  0x5c8
     5c6:	5a c0       	rjmp	.+180    	;  0x67c
     5c8:	e8 2f       	mov	r30, r24
     5ca:	f0 e0       	ldi	r31, 0x00	; 0
     5cc:	88 27       	eor	r24, r24
     5ce:	e4 51       	subi	r30, 0x14	; 20
     5d0:	fd 4f       	sbci	r31, 0xFD	; 253
     5d2:	8f 4f       	sbci	r24, 0xFF	; 255
     5d4:	0c 94 cf 13 	jmp	0x279e	;  0x279e
     5d8:	0c 03       	fmul	r16, r20
     5da:	10 03       	mulsu	r17, r16
     5dc:	fe 02       	muls	r31, r30
     5de:	04 03       	mulsu	r16, r20
     5e0:	08 03       	fmul	r16, r16
     5e2:	3e 03       	fmul	r19, r22
     5e4:	13 03       	mulsu	r17, r19
     5e6:	19 03       	fmul	r17, r17
     5e8:	1d 03       	fmul	r17, r21
     5ea:	23 03       	mulsu	r18, r19
     5ec:	27 03       	mulsu	r18, r23
     5ee:	2b 03       	fmul	r18, r19
     5f0:	31 03       	mulsu	r19, r17
     5f2:	35 03       	mulsu	r19, r21
     5f4:	3e 03       	fmul	r19, r22
     5f6:	39 03       	fmul	r19, r17
     5f8:	3f 03       	fmul	r19, r23
     5fa:	43 03       	mulsu	r20, r19
     5fc:	80 91 80 00 	lds	r24, 0x0080	;  0x800080
     600:	8f 77       	andi	r24, 0x7F	; 127
     602:	80 93 80 00 	sts	0x0080, r24	;  0x800080
     606:	08 95       	ret
     608:	80 91 80 00 	lds	r24, 0x0080	;  0x800080
     60c:	8f 7d       	andi	r24, 0xDF	; 223
     60e:	f9 cf       	rjmp	.-14     	;  0x602
     610:	80 91 80 00 	lds	r24, 0x0080	;  0x800080
     614:	87 7f       	andi	r24, 0xF7	; 247
     616:	f5 cf       	rjmp	.-22     	;  0x602
     618:	84 b5       	in	r24, 0x24	; 36
     61a:	8f 77       	andi	r24, 0x7F	; 127
     61c:	84 bd       	out	0x24, r24	; 36
     61e:	08 95       	ret
     620:	84 b5       	in	r24, 0x24	; 36
     622:	8f 7d       	andi	r24, 0xDF	; 223
     624:	fb cf       	rjmp	.-10     	;  0x61c
     626:	80 91 b0 00 	lds	r24, 0x00B0	;  0x8000b0
     62a:	8f 77       	andi	r24, 0x7F	; 127
     62c:	80 93 b0 00 	sts	0x00B0, r24	;  0x8000b0
     630:	08 95       	ret
     632:	80 91 b0 00 	lds	r24, 0x00B0	;  0x8000b0
     636:	8f 7d       	andi	r24, 0xDF	; 223
     638:	f9 cf       	rjmp	.-14     	;  0x62c
     63a:	80 91 90 00 	lds	r24, 0x0090	;  0x800090
     63e:	8f 77       	andi	r24, 0x7F	; 127
     640:	80 93 90 00 	sts	0x0090, r24	;  0x800090
     644:	08 95       	ret
     646:	80 91 90 00 	lds	r24, 0x0090	;  0x800090
     64a:	8f 7d       	andi	r24, 0xDF	; 223
     64c:	f9 cf       	rjmp	.-14     	;  0x640
     64e:	80 91 90 00 	lds	r24, 0x0090	;  0x800090
     652:	87 7f       	andi	r24, 0xF7	; 247
     654:	f5 cf       	rjmp	.-22     	;  0x640
     656:	80 91 a0 00 	lds	r24, 0x00A0	;  0x8000a0
     65a:	8f 77       	andi	r24, 0x7F	; 127
     65c:	80 93 a0 00 	sts	0x00A0, r24	;  0x8000a0
     660:	08 95       	ret
     662:	80 91 a0 00 	lds	r24, 0x00A0	;  0x8000a0
     666:	8f 7d       	andi	r24, 0xDF	; 223
     668:	f9 cf       	rjmp	.-14     	;  0x65c
     66a:	80 91 a0 00 	lds	r24, 0x00A0	;  0x8000a0
     66e:	87 7f       	andi	r24, 0xF7	; 247
     670:	f5 cf       	rjmp	.-22     	;  0x65c
     672:	80 91 20 01 	lds	r24, 0x0120	;  0x800120
     676:	8f 77       	andi	r24, 0x7F	; 127
     678:	80 93 20 01 	sts	0x0120, r24	;  0x800120
     67c:	08 95       	ret
     67e:	80 91 20 01 	lds	r24, 0x0120	;  0x800120
     682:	8f 7d       	andi	r24, 0xDF	; 223
     684:	f9 cf       	rjmp	.-14     	;  0x678
     686:	80 91 20 01 	lds	r24, 0x0120	;  0x800120
     68a:	87 7f       	andi	r24, 0xF7	; 247
     68c:	f5 cf       	rjmp	.-22     	;  0x678
     68e:	cf 93       	push	r28
     690:	df 93       	push	r29
     692:	28 2f       	mov	r18, r24
     694:	30 e0       	ldi	r19, 0x00	; 0
     696:	f9 01       	movw	r30, r18
     698:	ee 52       	subi	r30, 0x2E	; 46
     69a:	fd 4f       	sbci	r31, 0xFD	; 253
     69c:	84 91       	lpm	r24, Z
     69e:	f9 01       	movw	r30, r18
     6a0:	e4 57       	subi	r30, 0x74	; 116
     6a2:	fd 4f       	sbci	r31, 0xFD	; 253
     6a4:	d4 91       	lpm	r29, Z
     6a6:	f9 01       	movw	r30, r18
     6a8:	ea 5b       	subi	r30, 0xBA	; 186
     6aa:	fd 4f       	sbci	r31, 0xFD	; 253
     6ac:	c4 91       	lpm	r28, Z
     6ae:	cc 23       	and	r28, r28
     6b0:	a1 f0       	breq	.+40     	;  0x6da
     6b2:	81 11       	cpse	r24, r1
     6b4:	0e 94 e0 02 	call	0x5c0	;  0x5c0
     6b8:	ec 2f       	mov	r30, r28
     6ba:	f0 e0       	ldi	r31, 0x00	; 0
     6bc:	ee 0f       	add	r30, r30
     6be:	ff 1f       	adc	r31, r31
     6c0:	e4 5d       	subi	r30, 0xD4	; 212
     6c2:	fd 4f       	sbci	r31, 0xFD	; 253
     6c4:	a5 91       	lpm	r26, Z+
     6c6:	b4 91       	lpm	r27, Z
     6c8:	ec 91       	ld	r30, X
     6ca:	ed 23       	and	r30, r29
     6cc:	81 e0       	ldi	r24, 0x01	; 1
     6ce:	90 e0       	ldi	r25, 0x00	; 0
     6d0:	09 f4       	brne	.+2      	;  0x6d4
     6d2:	80 e0       	ldi	r24, 0x00	; 0
     6d4:	df 91       	pop	r29
     6d6:	cf 91       	pop	r28
     6d8:	08 95       	ret
     6da:	80 e0       	ldi	r24, 0x00	; 0
     6dc:	90 e0       	ldi	r25, 0x00	; 0
     6de:	fa cf       	rjmp	.-12     	;  0x6d4
     6e0:	1f 93       	push	r17
     6e2:	cf 93       	push	r28
     6e4:	df 93       	push	r29
     6e6:	28 2f       	mov	r18, r24
     6e8:	30 e0       	ldi	r19, 0x00	; 0
     6ea:	f9 01       	movw	r30, r18
     6ec:	ee 52       	subi	r30, 0x2E	; 46
     6ee:	fd 4f       	sbci	r31, 0xFD	; 253
     6f0:	84 91       	lpm	r24, Z
     6f2:	f9 01       	movw	r30, r18
     6f4:	e4 57       	subi	r30, 0x74	; 116
     6f6:	fd 4f       	sbci	r31, 0xFD	; 253
     6f8:	d4 91       	lpm	r29, Z
     6fa:	f9 01       	movw	r30, r18
     6fc:	ea 5b       	subi	r30, 0xBA	; 186
     6fe:	fd 4f       	sbci	r31, 0xFD	; 253
     700:	c4 91       	lpm	r28, Z
     702:	cc 23       	and	r28, r28
     704:	a9 f0       	breq	.+42     	;  0x730
     706:	16 2f       	mov	r17, r22
     708:	81 11       	cpse	r24, r1
     70a:	0e 94 e0 02 	call	0x5c0	;  0x5c0
     70e:	ec 2f       	mov	r30, r28
     710:	f0 e0       	ldi	r31, 0x00	; 0
     712:	ee 0f       	add	r30, r30
     714:	ff 1f       	adc	r31, r31
     716:	ee 5e       	subi	r30, 0xEE	; 238
     718:	fd 4f       	sbci	r31, 0xFD	; 253
     71a:	a5 91       	lpm	r26, Z+
     71c:	b4 91       	lpm	r27, Z
     71e:	8f b7       	in	r24, 0x3f	; 63
     720:	f8 94       	cli
     722:	ec 91       	ld	r30, X
     724:	11 11       	cpse	r17, r1
     726:	08 c0       	rjmp	.+16     	;  0x738
     728:	d0 95       	com	r29
     72a:	de 23       	and	r29, r30
     72c:	dc 93       	st	X, r29
     72e:	8f bf       	out	0x3f, r24	; 63
     730:	df 91       	pop	r29
     732:	cf 91       	pop	r28
     734:	1f 91       	pop	r17
     736:	08 95       	ret
     738:	de 2b       	or	r29, r30
     73a:	f8 cf       	rjmp	.-16     	;  0x72c
     73c:	cf 93       	push	r28
     73e:	df 93       	push	r29
     740:	90 e0       	ldi	r25, 0x00	; 0
     742:	fc 01       	movw	r30, r24
     744:	e4 57       	subi	r30, 0x74	; 116
     746:	fd 4f       	sbci	r31, 0xFD	; 253
     748:	24 91       	lpm	r18, Z
     74a:	8a 5b       	subi	r24, 0xBA	; 186
     74c:	9d 4f       	sbci	r25, 0xFD	; 253
     74e:	fc 01       	movw	r30, r24
     750:	84 91       	lpm	r24, Z
     752:	88 23       	and	r24, r24
     754:	d1 f0       	breq	.+52     	;  0x78a
     756:	90 e0       	ldi	r25, 0x00	; 0
     758:	88 0f       	add	r24, r24
     75a:	99 1f       	adc	r25, r25
     75c:	fc 01       	movw	r30, r24
     75e:	e8 50       	subi	r30, 0x08	; 8
     760:	fe 4f       	sbci	r31, 0xFE	; 254
     762:	a5 91       	lpm	r26, Z+
     764:	b4 91       	lpm	r27, Z
     766:	fc 01       	movw	r30, r24
     768:	ee 5e       	subi	r30, 0xEE	; 238
     76a:	fd 4f       	sbci	r31, 0xFD	; 253
     76c:	c5 91       	lpm	r28, Z+
     76e:	d4 91       	lpm	r29, Z
     770:	62 30       	cpi	r22, 0x02	; 2
     772:	71 f4       	brne	.+28     	;  0x790
     774:	9f b7       	in	r25, 0x3f	; 63
     776:	f8 94       	cli
     778:	3c 91       	ld	r19, X
     77a:	82 2f       	mov	r24, r18
     77c:	80 95       	com	r24
     77e:	83 23       	and	r24, r19
     780:	8c 93       	st	X, r24
     782:	e8 81       	ld	r30, Y
     784:	2e 2b       	or	r18, r30
     786:	28 83       	st	Y, r18
     788:	9f bf       	out	0x3f, r25	; 63
     78a:	df 91       	pop	r29
     78c:	cf 91       	pop	r28
     78e:	08 95       	ret
     790:	8f b7       	in	r24, 0x3f	; 63
     792:	f8 94       	cli
     794:	ec 91       	ld	r30, X
     796:	2e 2b       	or	r18, r30
     798:	2c 93       	st	X, r18
     79a:	8f bf       	out	0x3f, r24	; 63
     79c:	f6 cf       	rjmp	.-20     	;  0x78a
     79e:	3f b7       	in	r19, 0x3f	; 63
     7a0:	f8 94       	cli
     7a2:	80 91 dd 03 	lds	r24, 0x03DD	;  0x8003dd
     7a6:	90 91 de 03 	lds	r25, 0x03DE	;  0x8003de
     7aa:	a0 91 df 03 	lds	r26, 0x03DF	;  0x8003df
     7ae:	b0 91 e0 03 	lds	r27, 0x03E0	;  0x8003e0
     7b2:	26 b5       	in	r18, 0x26	; 38
     7b4:	a8 9b       	sbis	0x15, 0	; 21
     7b6:	05 c0       	rjmp	.+10     	;  0x7c2
     7b8:	2f 3f       	cpi	r18, 0xFF	; 255
     7ba:	19 f0       	breq	.+6      	;  0x7c2
     7bc:	01 96       	adiw	r24, 0x01	; 1
     7be:	a1 1d       	adc	r26, r1
     7c0:	b1 1d       	adc	r27, r1
     7c2:	3f bf       	out	0x3f, r19	; 63
     7c4:	ba 2f       	mov	r27, r26
     7c6:	a9 2f       	mov	r26, r25
     7c8:	98 2f       	mov	r25, r24
     7ca:	88 27       	eor	r24, r24
     7cc:	bc 01       	movw	r22, r24
     7ce:	cd 01       	movw	r24, r26
     7d0:	62 0f       	add	r22, r18
     7d2:	71 1d       	adc	r23, r1
     7d4:	81 1d       	adc	r24, r1
     7d6:	91 1d       	adc	r25, r1
     7d8:	42 e0       	ldi	r20, 0x02	; 2
     7da:	66 0f       	add	r22, r22
     7dc:	77 1f       	adc	r23, r23
     7de:	88 1f       	adc	r24, r24
     7e0:	99 1f       	adc	r25, r25
     7e2:	4a 95       	dec	r20
     7e4:	d1 f7       	brne	.-12     	;  0x7da
     7e6:	08 95       	ret
     7e8:	8f 92       	push	r8
     7ea:	9f 92       	push	r9
     7ec:	af 92       	push	r10
     7ee:	bf 92       	push	r11
     7f0:	cf 92       	push	r12
     7f2:	df 92       	push	r13
     7f4:	ef 92       	push	r14
     7f6:	ff 92       	push	r15
     7f8:	4b 01       	movw	r8, r22
     7fa:	5c 01       	movw	r10, r24
     7fc:	0e 94 cf 03 	call	0x79e	;  0x79e
     800:	6b 01       	movw	r12, r22
     802:	7c 01       	movw	r14, r24
     804:	0e 94 cf 03 	call	0x79e	;  0x79e
     808:	6c 19       	sub	r22, r12
     80a:	7d 09       	sbc	r23, r13
     80c:	8e 09       	sbc	r24, r14
     80e:	9f 09       	sbc	r25, r15
     810:	68 3e       	cpi	r22, 0xE8	; 232
     812:	73 40       	sbci	r23, 0x03	; 3
     814:	81 05       	cpc	r24, r1
     816:	91 05       	cpc	r25, r1
     818:	a8 f3       	brcs	.-22     	;  0x804
     81a:	21 e0       	ldi	r18, 0x01	; 1
     81c:	82 1a       	sub	r8, r18
     81e:	91 08       	sbc	r9, r1
     820:	a1 08       	sbc	r10, r1
     822:	b1 08       	sbc	r11, r1
     824:	88 ee       	ldi	r24, 0xE8	; 232
     826:	c8 0e       	add	r12, r24
     828:	83 e0       	ldi	r24, 0x03	; 3
     82a:	d8 1e       	adc	r13, r24
     82c:	e1 1c       	adc	r14, r1
     82e:	f1 1c       	adc	r15, r1
     830:	81 14       	cp	r8, r1
     832:	91 04       	cpc	r9, r1
     834:	a1 04       	cpc	r10, r1
     836:	b1 04       	cpc	r11, r1
     838:	29 f7       	brne	.-54     	;  0x804
     83a:	ff 90       	pop	r15
     83c:	ef 90       	pop	r14
     83e:	df 90       	pop	r13
     840:	cf 90       	pop	r12
     842:	bf 90       	pop	r11
     844:	af 90       	pop	r10
     846:	9f 90       	pop	r9
     848:	8f 90       	pop	r8
     84a:	08 95       	ret
     84c:	2f b7       	in	r18, 0x3f	; 63
     84e:	f8 94       	cli
     850:	60 91 d9 03 	lds	r22, 0x03D9	;  0x8003d9
     854:	70 91 da 03 	lds	r23, 0x03DA	;  0x8003da
     858:	80 91 db 03 	lds	r24, 0x03DB	;  0x8003db
     85c:	90 91 dc 03 	lds	r25, 0x03DC	;  0x8003dc
     860:	2f bf       	out	0x3f, r18	; 63
     862:	08 95       	ret
     864:	08 95       	ret
     866:	08 95       	ret
     868:	ef 92       	push	r14
     86a:	ff 92       	push	r15
     86c:	0f 93       	push	r16
     86e:	1f 93       	push	r17
     870:	cf 93       	push	r28
     872:	df 93       	push	r29
     874:	8c 01       	movw	r16, r24
     876:	7b 01       	movw	r14, r22
     878:	d0 e0       	ldi	r29, 0x00	; 0
     87a:	c0 e0       	ldi	r28, 0x00	; 0
     87c:	f7 01       	movw	r30, r14
     87e:	ec 0f       	add	r30, r28
     880:	fd 1f       	adc	r31, r29
     882:	64 91       	lpm	r22, Z
     884:	66 23       	and	r22, r22
     886:	61 f0       	breq	.+24     	;  0x8a0
     888:	d8 01       	movw	r26, r16
     88a:	ed 91       	ld	r30, X+
     88c:	fc 91       	ld	r31, X
     88e:	01 90       	ld	r0, Z+
     890:	f0 81       	ld	r31, Z
     892:	e0 2d       	mov	r30, r0
     894:	c8 01       	movw	r24, r16
     896:	19 95       	eicall
     898:	89 2b       	or	r24, r25
     89a:	11 f0       	breq	.+4      	;  0x8a0
     89c:	21 96       	adiw	r28, 0x01	; 1
     89e:	ee cf       	rjmp	.-36     	;  0x87c
     8a0:	ce 01       	movw	r24, r28
     8a2:	df 91       	pop	r29
     8a4:	cf 91       	pop	r28
     8a6:	1f 91       	pop	r17
     8a8:	0f 91       	pop	r16
     8aa:	ff 90       	pop	r15
     8ac:	ef 90       	pop	r14
     8ae:	08 95       	ret
     8b0:	af 92       	push	r10
     8b2:	bf 92       	push	r11
     8b4:	cf 92       	push	r12
     8b6:	df 92       	push	r13
     8b8:	ef 92       	push	r14
     8ba:	ff 92       	push	r15
     8bc:	0f 93       	push	r16
     8be:	1f 93       	push	r17
     8c0:	cf 93       	push	r28
     8c2:	df 93       	push	r29
     8c4:	6c 01       	movw	r12, r24
     8c6:	7b 01       	movw	r14, r22
     8c8:	8b 01       	movw	r16, r22
     8ca:	04 0f       	add	r16, r20
     8cc:	15 1f       	adc	r17, r21
     8ce:	eb 01       	movw	r28, r22
     8d0:	5e 01       	movw	r10, r28
     8d2:	ae 18       	sub	r10, r14
     8d4:	bf 08       	sbc	r11, r15
     8d6:	c0 17       	cp	r28, r16
     8d8:	d1 07       	cpc	r29, r17
     8da:	59 f0       	breq	.+22     	;  0x8f2
     8dc:	69 91       	ld	r22, Y+
     8de:	d6 01       	movw	r26, r12
     8e0:	ed 91       	ld	r30, X+
     8e2:	fc 91       	ld	r31, X
     8e4:	01 90       	ld	r0, Z+
     8e6:	f0 81       	ld	r31, Z
     8e8:	e0 2d       	mov	r30, r0
     8ea:	c6 01       	movw	r24, r12
     8ec:	19 95       	eicall
     8ee:	89 2b       	or	r24, r25
     8f0:	79 f7       	brne	.-34     	;  0x8d0
     8f2:	c5 01       	movw	r24, r10
     8f4:	df 91       	pop	r29
     8f6:	cf 91       	pop	r28
     8f8:	1f 91       	pop	r17
     8fa:	0f 91       	pop	r16
     8fc:	ff 90       	pop	r15
     8fe:	ef 90       	pop	r14
     900:	df 90       	pop	r13
     902:	cf 90       	pop	r12
     904:	bf 90       	pop	r11
     906:	af 90       	pop	r10
     908:	08 95       	ret
     90a:	20 91 5b 03 	lds	r18, 0x035B	;  0x80035b
     90e:	26 0f       	add	r18, r22
     910:	33 27       	eor	r19, r19
     912:	33 1f       	adc	r19, r19
     914:	21 32       	cpi	r18, 0x21	; 33
     916:	31 05       	cpc	r19, r1
     918:	ec f4       	brge	.+58     	;  0x954
     91a:	20 91 a4 03 	lds	r18, 0x03A4	;  0x8003a4
     91e:	fc 01       	movw	r30, r24
     920:	90 e0       	ldi	r25, 0x00	; 0
     922:	80 e0       	ldi	r24, 0x00	; 0
     924:	24 30       	cpi	r18, 0x04	; 4
     926:	69 f0       	breq	.+26     	;  0x942
     928:	82 e0       	ldi	r24, 0x02	; 2
     92a:	08 95       	ret
     92c:	a0 91 5b 03 	lds	r26, 0x035B	;  0x80035b
     930:	21 91       	ld	r18, Z+
     932:	ac 01       	movw	r20, r24
     934:	45 5c       	subi	r20, 0xC5	; 197
     936:	5c 4f       	sbci	r21, 0xFC	; 252
     938:	a4 0f       	add	r26, r20
     93a:	b5 2f       	mov	r27, r21
     93c:	b1 1d       	adc	r27, r1
     93e:	2c 93       	st	X, r18
     940:	01 96       	adiw	r24, 0x01	; 1
     942:	86 17       	cp	r24, r22
     944:	98 f3       	brcs	.-26     	;  0x92c
     946:	80 91 5b 03 	lds	r24, 0x035B	;  0x80035b
     94a:	68 0f       	add	r22, r24
     94c:	60 93 5b 03 	sts	0x035B, r22	;  0x80035b
     950:	80 e0       	ldi	r24, 0x00	; 0
     952:	08 95       	ret
     954:	81 e0       	ldi	r24, 0x01	; 1
     956:	08 95       	ret
     958:	10 92 a4 03 	sts	0x03A4, r1	;  0x8003a4
     95c:	81 e0       	ldi	r24, 0x01	; 1
     95e:	80 93 a3 03 	sts	0x03A3, r24	;  0x8003a3
     962:	10 92 7e 03 	sts	0x037E, r1	;  0x80037e
     966:	61 e0       	ldi	r22, 0x01	; 1
     968:	84 e1       	ldi	r24, 0x14	; 20
     96a:	0e 94 70 03 	call	0x6e0	;  0x6e0
     96e:	61 e0       	ldi	r22, 0x01	; 1
     970:	85 e1       	ldi	r24, 0x15	; 21
     972:	0e 94 70 03 	call	0x6e0	;  0x6e0
     976:	e9 eb       	ldi	r30, 0xB9	; 185
     978:	f0 e0       	ldi	r31, 0x00	; 0
     97a:	80 81       	ld	r24, Z
     97c:	8e 7f       	andi	r24, 0xFE	; 254
     97e:	80 83       	st	Z, r24
     980:	80 81       	ld	r24, Z
     982:	8d 7f       	andi	r24, 0xFD	; 253
     984:	80 83       	st	Z, r24
     986:	88 e4       	ldi	r24, 0x48	; 72
     988:	80 93 b8 00 	sts	0x00B8, r24	;  0x8000b8
     98c:	85 e4       	ldi	r24, 0x45	; 69
     98e:	80 93 bc 00 	sts	0x00BC, r24	;  0x8000bc
     992:	08 95       	ret
     994:	cf 93       	push	r28
     996:	df 93       	push	r29
     998:	91 e0       	ldi	r25, 0x01	; 1
     99a:	90 93 3a 03 	sts	0x033A, r25	;  0x80033a
     99e:	88 23       	and	r24, r24
     9a0:	b9 f0       	breq	.+46     	;  0x9d0
     9a2:	c0 91 b8 00 	lds	r28, 0x00B8	;  0x8000b8
     9a6:	d0 91 ba 00 	lds	r29, 0x00BA	;  0x8000ba
     9aa:	80 91 bc 00 	lds	r24, 0x00BC	;  0x8000bc
     9ae:	8a 7b       	andi	r24, 0xBA	; 186
     9b0:	80 93 bc 00 	sts	0x00BC, r24	;  0x8000bc
     9b4:	60 e0       	ldi	r22, 0x00	; 0
     9b6:	84 e1       	ldi	r24, 0x14	; 20
     9b8:	0e 94 70 03 	call	0x6e0	;  0x6e0
     9bc:	60 e0       	ldi	r22, 0x00	; 0
     9be:	85 e1       	ldi	r24, 0x15	; 21
     9c0:	0e 94 70 03 	call	0x6e0	;  0x6e0
     9c4:	0e 94 ac 04 	call	0x958	;  0x958
     9c8:	d0 93 ba 00 	sts	0x00BA, r29	;  0x8000ba
     9cc:	c0 93 b8 00 	sts	0x00B8, r28	;  0x8000b8
     9d0:	df 91       	pop	r29
     9d2:	cf 91       	pop	r28
     9d4:	08 95       	ret
     9d6:	08 95       	ret
     9d8:	e0 91 d3 03 	lds	r30, 0x03D3	;  0x8003d3
     9dc:	80 91 d2 03 	lds	r24, 0x03D2	;  0x8003d2
     9e0:	e8 17       	cp	r30, r24
     9e2:	30 f4       	brcc	.+12     	;  0x9f0
     9e4:	f0 e0       	ldi	r31, 0x00	; 0
     9e6:	e6 5e       	subi	r30, 0xE6	; 230
     9e8:	fc 4f       	sbci	r31, 0xFC	; 252
     9ea:	80 81       	ld	r24, Z
     9ec:	90 e0       	ldi	r25, 0x00	; 0
     9ee:	08 95       	ret
     9f0:	8f ef       	ldi	r24, 0xFF	; 255
     9f2:	9f ef       	ldi	r25, 0xFF	; 255
     9f4:	08 95       	ret
     9f6:	90 91 d3 03 	lds	r25, 0x03D3	;  0x8003d3
     9fa:	80 91 d2 03 	lds	r24, 0x03D2	;  0x8003d2
     9fe:	2f ef       	ldi	r18, 0xFF	; 255
     a00:	3f ef       	ldi	r19, 0xFF	; 255
     a02:	98 17       	cp	r25, r24
     a04:	48 f4       	brcc	.+18     	;  0xa18
     a06:	e9 2f       	mov	r30, r25
     a08:	f0 e0       	ldi	r31, 0x00	; 0
     a0a:	e6 5e       	subi	r30, 0xE6	; 230
     a0c:	fc 4f       	sbci	r31, 0xFC	; 252
     a0e:	20 81       	ld	r18, Z
     a10:	30 e0       	ldi	r19, 0x00	; 0
     a12:	9f 5f       	subi	r25, 0xFF	; 255
     a14:	90 93 d3 03 	sts	0x03D3, r25	;  0x8003d3
     a18:	c9 01       	movw	r24, r18
     a1a:	08 95       	ret
     a1c:	80 91 d2 03 	lds	r24, 0x03D2	;  0x8003d2
     a20:	90 91 d3 03 	lds	r25, 0x03D3	;  0x8003d3
     a24:	89 1b       	sub	r24, r25
     a26:	99 0b       	sbc	r25, r25
     a28:	08 95       	ret
     a2a:	cf 92       	push	r12
     a2c:	df 92       	push	r13
     a2e:	ef 92       	push	r14
     a30:	ff 92       	push	r15
     a32:	0f 93       	push	r16
     a34:	1f 93       	push	r17
     a36:	cf 93       	push	r28
     a38:	df 93       	push	r29
     a3a:	7c 01       	movw	r14, r24
     a3c:	cb 01       	movw	r24, r22
     a3e:	8a 01       	movw	r16, r20
     a40:	20 91 aa 03 	lds	r18, 0x03AA	;  0x8003aa
     a44:	22 23       	and	r18, r18
     a46:	89 f0       	breq	.+34     	;  0xa6a
     a48:	eb 01       	movw	r28, r22
     a4a:	6b 01       	movw	r12, r22
     a4c:	c4 0e       	add	r12, r20
     a4e:	d5 1e       	adc	r13, r21
     a50:	cc 15       	cp	r28, r12
     a52:	dd 05       	cpc	r29, r13
     a54:	69 f0       	breq	.+26     	;  0xa70
     a56:	69 91       	ld	r22, Y+
     a58:	d7 01       	movw	r26, r14
     a5a:	ed 91       	ld	r30, X+
     a5c:	fc 91       	ld	r31, X
     a5e:	01 90       	ld	r0, Z+
     a60:	f0 81       	ld	r31, Z
     a62:	e0 2d       	mov	r30, r0
     a64:	c7 01       	movw	r24, r14
     a66:	19 95       	eicall
     a68:	f3 cf       	rjmp	.-26     	;  0xa50
     a6a:	64 2f       	mov	r22, r20
     a6c:	0e 94 85 04 	call	0x90a	;  0x90a
     a70:	c8 01       	movw	r24, r16
     a72:	df 91       	pop	r29
     a74:	cf 91       	pop	r28
     a76:	1f 91       	pop	r17
     a78:	0f 91       	pop	r16
     a7a:	ff 90       	pop	r15
     a7c:	ef 90       	pop	r14
     a7e:	df 90       	pop	r13
     a80:	cf 90       	pop	r12
     a82:	08 95       	ret
     a84:	cf 93       	push	r28
     a86:	df 93       	push	r29
     a88:	1f 92       	push	r1
     a8a:	cd b7       	in	r28, 0x3d	; 61
     a8c:	de b7       	in	r29, 0x3e	; 62
     a8e:	69 83       	std	Y+1, r22	; 0x01
     a90:	20 91 aa 03 	lds	r18, 0x03AA	;  0x8003aa
     a94:	22 23       	and	r18, r18
     a96:	f9 f0       	breq	.+62     	;  0xad6
     a98:	20 91 d0 03 	lds	r18, 0x03D0	;  0x8003d0
     a9c:	20 32       	cpi	r18, 0x20	; 32
     a9e:	58 f0       	brcs	.+22     	;  0xab6
     aa0:	21 e0       	ldi	r18, 0x01	; 1
     aa2:	30 e0       	ldi	r19, 0x00	; 0
     aa4:	fc 01       	movw	r30, r24
     aa6:	33 83       	std	Z+3, r19	; 0x03
     aa8:	22 83       	std	Z+2, r18	; 0x02
     aaa:	90 e0       	ldi	r25, 0x00	; 0
     aac:	80 e0       	ldi	r24, 0x00	; 0
     aae:	0f 90       	pop	r0
     ab0:	df 91       	pop	r29
     ab2:	cf 91       	pop	r28
     ab4:	08 95       	ret
     ab6:	80 91 d1 03 	lds	r24, 0x03D1	;  0x8003d1
     aba:	e8 2f       	mov	r30, r24
     abc:	f0 e0       	ldi	r31, 0x00	; 0
     abe:	e5 55       	subi	r30, 0x55	; 85
     ac0:	fc 4f       	sbci	r31, 0xFC	; 252
     ac2:	99 81       	ldd	r25, Y+1	; 0x01
     ac4:	90 83       	st	Z, r25
     ac6:	8f 5f       	subi	r24, 0xFF	; 255
     ac8:	80 93 d1 03 	sts	0x03D1, r24	;  0x8003d1
     acc:	80 93 d0 03 	sts	0x03D0, r24	;  0x8003d0
     ad0:	81 e0       	ldi	r24, 0x01	; 1
     ad2:	90 e0       	ldi	r25, 0x00	; 0
     ad4:	ec cf       	rjmp	.-40     	;  0xaae
     ad6:	61 e0       	ldi	r22, 0x01	; 1
     ad8:	ce 01       	movw	r24, r28
     ada:	01 96       	adiw	r24, 0x01	; 1
     adc:	0e 94 85 04 	call	0x90a	;  0x90a
     ae0:	f7 cf       	rjmp	.-18     	;  0xad0
     ae2:	cf 92       	push	r12
     ae4:	df 92       	push	r13
     ae6:	ef 92       	push	r14
     ae8:	ff 92       	push	r15
     aea:	0f 93       	push	r16
     aec:	1f 93       	push	r17
     aee:	cf 93       	push	r28
     af0:	df 93       	push	r29
     af2:	fc 01       	movw	r30, r24
     af4:	c4 81       	ldd	r28, Z+4	; 0x04
     af6:	21 e0       	ldi	r18, 0x01	; 1
     af8:	20 93 aa 03 	sts	0x03AA, r18	;  0x8003aa
     afc:	c0 93 cb 03 	sts	0x03CB, r28	;  0x8003cb
     b00:	10 92 d1 03 	sts	0x03D1, r1	;  0x8003d1
     b04:	10 92 d0 03 	sts	0x03D0, r1	;  0x8003d0
     b08:	83 85       	ldd	r24, Z+11	; 0x0b
     b0a:	68 2b       	or	r22, r24
     b0c:	8e e7       	ldi	r24, 0x7E	; 126
     b0e:	94 e0       	ldi	r25, 0x04	; 4
     b10:	0e 94 42 05 	call	0xa84	;  0xa84
     b14:	d0 91 d0 03 	lds	r29, 0x03D0	;  0x8003d0
     b18:	d1 32       	cpi	r29, 0x21	; 33
     b1a:	08 f0       	brcs	.+2      	;  0xb1e
     b1c:	92 c0       	rjmp	.+292    	;  0xc42
     b1e:	0e 94 cf 03 	call	0x79e	;  0x79e
     b22:	6b 01       	movw	r12, r22
     b24:	7c 01       	movw	r14, r24
     b26:	80 91 a4 03 	lds	r24, 0x03A4	;  0x8003a4
     b2a:	81 11       	cpse	r24, r1
     b2c:	65 c0       	rjmp	.+202    	;  0xbf8
     b2e:	82 e0       	ldi	r24, 0x02	; 2
     b30:	80 93 a4 03 	sts	0x03A4, r24	;  0x8003a4
     b34:	81 e0       	ldi	r24, 0x01	; 1
     b36:	80 93 a3 03 	sts	0x03A3, r24	;  0x8003a3
     b3a:	8f ef       	ldi	r24, 0xFF	; 255
     b3c:	80 93 a2 03 	sts	0x03A2, r24	;  0x8003a2
     b40:	10 92 a1 03 	sts	0x03A1, r1	;  0x8003a1
     b44:	d0 93 a0 03 	sts	0x03A0, r29	;  0x8003a0
     b48:	ab ea       	ldi	r26, 0xAB	; 171
     b4a:	b3 e0       	ldi	r27, 0x03	; 3
     b4c:	e0 e8       	ldi	r30, 0x80	; 128
     b4e:	f3 e0       	ldi	r31, 0x03	; 3
     b50:	80 e0       	ldi	r24, 0x00	; 0
     b52:	d8 13       	cpse	r29, r24
     b54:	85 c0       	rjmp	.+266    	;  0xc60
     b56:	10 92 7f 03 	sts	0x037F, r1	;  0x80037f
     b5a:	80 91 7f 03 	lds	r24, 0x037F	;  0x80037f
     b5e:	cc 0f       	add	r28, r28
     b60:	c8 2b       	or	r28, r24
     b62:	c0 93 7f 03 	sts	0x037F, r28	;  0x80037f
     b66:	80 91 7e 03 	lds	r24, 0x037E	;  0x80037e
     b6a:	81 30       	cpi	r24, 0x01	; 1
     b6c:	09 f0       	breq	.+2      	;  0xb70
     b6e:	7c c0       	rjmp	.+248    	;  0xc68
     b70:	10 92 7e 03 	sts	0x037E, r1	;  0x80037e
     b74:	0e 94 cf 03 	call	0x79e	;  0x79e
     b78:	6b 01       	movw	r12, r22
     b7a:	7c 01       	movw	r14, r24
     b7c:	80 91 7f 03 	lds	r24, 0x037F	;  0x80037f
     b80:	80 93 bb 00 	sts	0x00BB, r24	;  0x8000bb
     b84:	80 91 a6 03 	lds	r24, 0x03A6	;  0x8003a6
     b88:	90 91 a7 03 	lds	r25, 0x03A7	;  0x8003a7
     b8c:	a0 91 a8 03 	lds	r26, 0x03A8	;  0x8003a8
     b90:	b0 91 a9 03 	lds	r27, 0x03A9	;  0x8003a9
     b94:	89 2b       	or	r24, r25
     b96:	8a 2b       	or	r24, r26
     b98:	8b 2b       	or	r24, r27
     b9a:	99 f0       	breq	.+38     	;  0xbc2
     b9c:	0e 94 cf 03 	call	0x79e	;  0x79e
     ba0:	00 91 a6 03 	lds	r16, 0x03A6	;  0x8003a6
     ba4:	10 91 a7 03 	lds	r17, 0x03A7	;  0x8003a7
     ba8:	20 91 a8 03 	lds	r18, 0x03A8	;  0x8003a8
     bac:	30 91 a9 03 	lds	r19, 0x03A9	;  0x8003a9
     bb0:	6c 19       	sub	r22, r12
     bb2:	7d 09       	sbc	r23, r13
     bb4:	8e 09       	sbc	r24, r14
     bb6:	9f 09       	sbc	r25, r15
     bb8:	06 17       	cp	r16, r22
     bba:	17 07       	cpc	r17, r23
     bbc:	28 07       	cpc	r18, r24
     bbe:	39 07       	cpc	r19, r25
     bc0:	e0 f1       	brcs	.+120    	;  0xc3a
     bc2:	80 91 bc 00 	lds	r24, 0x00BC	;  0x8000bc
     bc6:	83 fd       	sbrc	r24, 3
     bc8:	d9 cf       	rjmp	.-78     	;  0xb7c
     bca:	85 ec       	ldi	r24, 0xC5	; 197
     bcc:	80 93 bc 00 	sts	0x00BC, r24	;  0x8000bc
     bd0:	0e 94 cf 03 	call	0x79e	;  0x79e
     bd4:	6b 01       	movw	r12, r22
     bd6:	7c 01       	movw	r14, r24
     bd8:	80 91 a4 03 	lds	r24, 0x03A4	;  0x8003a4
     bdc:	82 30       	cpi	r24, 0x02	; 2
     bde:	09 f4       	brne	.+2      	;  0xbe2
     be0:	45 c0       	rjmp	.+138    	;  0xc6c
     be2:	80 91 a2 03 	lds	r24, 0x03A2	;  0x8003a2
     be6:	8f 3f       	cpi	r24, 0xFF	; 255
     be8:	61 f1       	breq	.+88     	;  0xc42
     bea:	80 91 a2 03 	lds	r24, 0x03A2	;  0x8003a2
     bee:	80 32       	cpi	r24, 0x20	; 32
     bf0:	41 f1       	breq	.+80     	;  0xc42
     bf2:	80 91 a2 03 	lds	r24, 0x03A2	;  0x8003a2
     bf6:	25 c0       	rjmp	.+74     	;  0xc42
     bf8:	80 91 a6 03 	lds	r24, 0x03A6	;  0x8003a6
     bfc:	90 91 a7 03 	lds	r25, 0x03A7	;  0x8003a7
     c00:	a0 91 a8 03 	lds	r26, 0x03A8	;  0x8003a8
     c04:	b0 91 a9 03 	lds	r27, 0x03A9	;  0x8003a9
     c08:	89 2b       	or	r24, r25
     c0a:	8a 2b       	or	r24, r26
     c0c:	8b 2b       	or	r24, r27
     c0e:	09 f4       	brne	.+2      	;  0xc12
     c10:	8a cf       	rjmp	.-236    	;  0xb26
     c12:	0e 94 cf 03 	call	0x79e	;  0x79e
     c16:	00 91 a6 03 	lds	r16, 0x03A6	;  0x8003a6
     c1a:	10 91 a7 03 	lds	r17, 0x03A7	;  0x8003a7
     c1e:	20 91 a8 03 	lds	r18, 0x03A8	;  0x8003a8
     c22:	30 91 a9 03 	lds	r19, 0x03A9	;  0x8003a9
     c26:	6c 19       	sub	r22, r12
     c28:	7d 09       	sbc	r23, r13
     c2a:	8e 09       	sbc	r24, r14
     c2c:	9f 09       	sbc	r25, r15
     c2e:	06 17       	cp	r16, r22
     c30:	17 07       	cpc	r17, r23
     c32:	28 07       	cpc	r18, r24
     c34:	39 07       	cpc	r19, r25
     c36:	08 f0       	brcs	.+2      	;  0xc3a
     c38:	76 cf       	rjmp	.-276    	;  0xb26
     c3a:	80 91 a5 03 	lds	r24, 0x03A5	;  0x8003a5
     c3e:	0e 94 ca 04 	call	0x994	;  0x994
     c42:	10 92 d1 03 	sts	0x03D1, r1	;  0x8003d1
     c46:	10 92 d0 03 	sts	0x03D0, r1	;  0x8003d0
     c4a:	10 92 aa 03 	sts	0x03AA, r1	;  0x8003aa
     c4e:	df 91       	pop	r29
     c50:	cf 91       	pop	r28
     c52:	1f 91       	pop	r17
     c54:	0f 91       	pop	r16
     c56:	ff 90       	pop	r15
     c58:	ef 90       	pop	r14
     c5a:	df 90       	pop	r13
     c5c:	cf 90       	pop	r12
     c5e:	08 95       	ret
     c60:	9d 91       	ld	r25, X+
     c62:	91 93       	st	Z+, r25
     c64:	8f 5f       	subi	r24, 0xFF	; 255
     c66:	75 cf       	rjmp	.-278    	;  0xb52
     c68:	85 ee       	ldi	r24, 0xE5	; 229
     c6a:	b0 cf       	rjmp	.-160    	;  0xbcc
     c6c:	80 91 a6 03 	lds	r24, 0x03A6	;  0x8003a6
     c70:	90 91 a7 03 	lds	r25, 0x03A7	;  0x8003a7
     c74:	a0 91 a8 03 	lds	r26, 0x03A8	;  0x8003a8
     c78:	b0 91 a9 03 	lds	r27, 0x03A9	;  0x8003a9
     c7c:	89 2b       	or	r24, r25
     c7e:	8a 2b       	or	r24, r26
     c80:	8b 2b       	or	r24, r27
     c82:	09 f4       	brne	.+2      	;  0xc86
     c84:	a9 cf       	rjmp	.-174    	;  0xbd8
     c86:	0e 94 cf 03 	call	0x79e	;  0x79e
     c8a:	00 91 a6 03 	lds	r16, 0x03A6	;  0x8003a6
     c8e:	10 91 a7 03 	lds	r17, 0x03A7	;  0x8003a7
     c92:	20 91 a8 03 	lds	r18, 0x03A8	;  0x8003a8
     c96:	30 91 a9 03 	lds	r19, 0x03A9	;  0x8003a9
     c9a:	6c 19       	sub	r22, r12
     c9c:	7d 09       	sbc	r23, r13
     c9e:	8e 09       	sbc	r24, r14
     ca0:	9f 09       	sbc	r25, r15
     ca2:	06 17       	cp	r16, r22
     ca4:	17 07       	cpc	r17, r23
     ca6:	28 07       	cpc	r18, r24
     ca8:	39 07       	cpc	r19, r25
     caa:	08 f0       	brcs	.+2      	;  0xcae
     cac:	95 cf       	rjmp	.-214    	;  0xbd8
     cae:	c5 cf       	rjmp	.-118    	;  0xc3a
     cb0:	08 95       	ret
     cb2:	90 e0       	ldi	r25, 0x00	; 0
     cb4:	80 e0       	ldi	r24, 0x00	; 0
     cb6:	08 95       	ret
     cb8:	1f 93       	push	r17
     cba:	cf 93       	push	r28
     cbc:	df 93       	push	r29
     cbe:	18 2f       	mov	r17, r24
     cc0:	86 2f       	mov	r24, r22
     cc2:	61 e0       	ldi	r22, 0x01	; 1
     cc4:	41 30       	cpi	r20, 0x01	; 1
     cc6:	51 05       	cpc	r21, r1
     cc8:	09 f0       	breq	.+2      	;  0xccc
     cca:	60 e0       	ldi	r22, 0x00	; 0
     ccc:	0e 94 70 03 	call	0x6e0	;  0x6e0
     cd0:	61 e0       	ldi	r22, 0x01	; 1
     cd2:	81 2f       	mov	r24, r17
     cd4:	0e 94 70 03 	call	0x6e0	;  0x6e0
     cd8:	cb e7       	ldi	r28, 0x7B	; 123
     cda:	dc e0       	ldi	r29, 0x0C	; 12
     cdc:	ce 01       	movw	r24, r28
     cde:	01 97       	sbiw	r24, 0x01	; 1
     ce0:	f1 f7       	brne	.-4      	;  0xcde
     ce2:	60 e0       	ldi	r22, 0x00	; 0
     ce4:	81 2f       	mov	r24, r17
     ce6:	0e 94 70 03 	call	0x6e0	;  0x6e0
     cea:	21 97       	sbiw	r28, 0x01	; 1
     cec:	f1 f7       	brne	.-4      	;  0xcea
     cee:	df 91       	pop	r29
     cf0:	cf 91       	pop	r28
     cf2:	1f 91       	pop	r17
     cf4:	08 95       	ret
     cf6:	0e 94 26 04 	call	0x84c	;  0x84c
     cfa:	60 93 d4 03 	sts	0x03D4, r22	;  0x8003d4
     cfe:	70 93 d5 03 	sts	0x03D5, r23	;  0x8003d5
     d02:	80 93 d6 03 	sts	0x03D6, r24	;  0x8003d6
     d06:	90 93 d7 03 	sts	0x03D7, r25	;  0x8003d7
     d0a:	08 95       	ret
     d0c:	0f 93       	push	r16
     d0e:	1f 93       	push	r17
     d10:	cf 93       	push	r28
     d12:	8c 01       	movw	r16, r24
     d14:	c6 2f       	mov	r28, r22
     d16:	0e 94 71 05 	call	0xae2	;  0xae2
     d1a:	6c 2f       	mov	r22, r28
     d1c:	64 60       	ori	r22, 0x04	; 4
     d1e:	c8 01       	movw	r24, r16
     d20:	0e 94 71 05 	call	0xae2	;  0xae2
     d24:	6c 2f       	mov	r22, r28
     d26:	6b 7f       	andi	r22, 0xFB	; 251
     d28:	c8 01       	movw	r24, r16
     d2a:	0e 94 71 05 	call	0xae2	;  0xae2
     d2e:	83 ec       	ldi	r24, 0xC3	; 195
     d30:	90 e0       	ldi	r25, 0x00	; 0
     d32:	01 97       	sbiw	r24, 0x01	; 1
     d34:	f1 f7       	brne	.-4      	;  0xd32
     d36:	cf 91       	pop	r28
     d38:	1f 91       	pop	r17
     d3a:	0f 91       	pop	r16
     d3c:	08 95       	ret
     d3e:	0f 93       	push	r16
     d40:	1f 93       	push	r17
     d42:	cf 93       	push	r28
     d44:	df 93       	push	r29
     d46:	8c 01       	movw	r16, r24
     d48:	d6 2f       	mov	r29, r22
     d4a:	c4 2f       	mov	r28, r20
     d4c:	60 7f       	andi	r22, 0xF0	; 240
     d4e:	64 2b       	or	r22, r20
     d50:	0e 94 86 06 	call	0xd0c	;  0xd0c
     d54:	80 e1       	ldi	r24, 0x10	; 16
     d56:	d8 9f       	mul	r29, r24
     d58:	b0 01       	movw	r22, r0
     d5a:	11 24       	eor	r1, r1
     d5c:	6c 2b       	or	r22, r28
     d5e:	c8 01       	movw	r24, r16
     d60:	df 91       	pop	r29
     d62:	cf 91       	pop	r28
     d64:	1f 91       	pop	r17
     d66:	0f 91       	pop	r16
     d68:	0c 94 86 06 	jmp	0xd0c	;  0xd0c
     d6c:	cf 93       	push	r28
     d6e:	df 93       	push	r29
     d70:	00 d0       	rcall	.+0      	;  0xd72
     d72:	00 d0       	rcall	.+0      	;  0xd74
     d74:	1f 92       	push	r1
     d76:	1f 92       	push	r1
     d78:	cd b7       	in	r28, 0x3d	; 61
     d7a:	de b7       	in	r29, 0x3e	; 62
     d7c:	98 e0       	ldi	r25, 0x08	; 8
     d7e:	e6 e0       	ldi	r30, 0x06	; 6
     d80:	f2 e0       	ldi	r31, 0x02	; 2
     d82:	de 01       	movw	r26, r28
     d84:	11 96       	adiw	r26, 0x01	; 1
     d86:	01 90       	ld	r0, Z+
     d88:	0d 92       	st	X+, r0
     d8a:	9a 95       	dec	r25
     d8c:	e1 f7       	brne	.-8      	;  0xd86
     d8e:	90 91 b8 04 	lds	r25, 0x04B8	;  0x8004b8
     d92:	98 17       	cp	r25, r24
     d94:	08 f4       	brcc	.+2      	;  0xd98
     d96:	8f ef       	ldi	r24, 0xFF	; 255
     d98:	90 e0       	ldi	r25, 0x00	; 0
     d9a:	88 0f       	add	r24, r24
     d9c:	99 1f       	adc	r25, r25
     d9e:	21 e0       	ldi	r18, 0x01	; 1
     da0:	30 e0       	ldi	r19, 0x00	; 0
     da2:	2c 0f       	add	r18, r28
     da4:	3d 1f       	adc	r19, r29
     da6:	82 0f       	add	r24, r18
     da8:	93 1f       	adc	r25, r19
     daa:	fc 01       	movw	r30, r24
     dac:	60 81       	ld	r22, Z
     dae:	60 68       	ori	r22, 0x80	; 128
     db0:	40 e0       	ldi	r20, 0x00	; 0
     db2:	80 eb       	ldi	r24, 0xB0	; 176
     db4:	94 e0       	ldi	r25, 0x04	; 4
     db6:	28 96       	adiw	r28, 0x08	; 8
     db8:	0f b6       	in	r0, 0x3f	; 63
     dba:	f8 94       	cli
     dbc:	de bf       	out	0x3e, r29	; 62
     dbe:	0f be       	out	0x3f, r0	; 63
     dc0:	cd bf       	out	0x3d, r28	; 61
     dc2:	df 91       	pop	r29
     dc4:	cf 91       	pop	r28
     dc6:	0c 94 9f 06 	jmp	0xd3e	;  0xd3e
     dca:	41 e0       	ldi	r20, 0x01	; 1
     dcc:	0e 94 9f 06 	call	0xd3e	;  0xd3e
     dd0:	81 e0       	ldi	r24, 0x01	; 1
     dd2:	90 e0       	ldi	r25, 0x00	; 0
     dd4:	08 95       	ret
     dd6:	fc 01       	movw	r30, r24
     dd8:	01 90       	ld	r0, Z+
     dda:	00 20       	and	r0, r0
     ddc:	e9 f7       	brne	.-6      	;  0xdd8
     dde:	31 97       	sbiw	r30, 0x01	; 1
     de0:	9f 01       	movw	r18, r30
     de2:	28 1b       	sub	r18, r24
     de4:	39 0b       	sbc	r19, r25
     de6:	e0 91 90 04 	lds	r30, 0x0490	;  0x800490
     dea:	f0 91 91 04 	lds	r31, 0x0491	;  0x800491
     dee:	e2 1b       	sub	r30, r18
     df0:	f3 0b       	sbc	r31, r19
     df2:	40 91 8c 04 	lds	r20, 0x048C	;  0x80048c
     df6:	50 91 8d 04 	lds	r21, 0x048D	;  0x80048d
     dfa:	e4 17       	cp	r30, r20
     dfc:	f5 07       	cpc	r31, r21
     dfe:	30 f4       	brcc	.+12     	;  0xe0c
     e00:	60 91 8a 04 	lds	r22, 0x048A	;  0x80048a
     e04:	70 91 8b 04 	lds	r23, 0x048B	;  0x80048b
     e08:	e6 0f       	add	r30, r22
     e0a:	f7 1f       	adc	r31, r23
     e0c:	28 0f       	add	r18, r24
     e0e:	39 1f       	adc	r19, r25
     e10:	60 91 8e 04 	lds	r22, 0x048E	;  0x80048e
     e14:	70 91 8f 04 	lds	r23, 0x048F	;  0x80048f
     e18:	dc 01       	movw	r26, r24
     e1a:	82 17       	cp	r24, r18
     e1c:	93 07       	cpc	r25, r19
     e1e:	58 f4       	brcc	.+22     	;  0xe36
     e20:	01 96       	adiw	r24, 0x01	; 1
     e22:	bc 91       	ld	r27, X
     e24:	a0 81       	ld	r26, Z
     e26:	ba 13       	cpse	r27, r26
     e28:	08 c0       	rjmp	.+16     	;  0xe3a
     e2a:	31 96       	adiw	r30, 0x01	; 1
     e2c:	e6 17       	cp	r30, r22
     e2e:	f7 07       	cpc	r31, r23
     e30:	99 f7       	brne	.-26     	;  0xe18
     e32:	fa 01       	movw	r30, r20
     e34:	f1 cf       	rjmp	.-30     	;  0xe18
     e36:	81 e0       	ldi	r24, 0x01	; 1
     e38:	08 95       	ret
     e3a:	80 e0       	ldi	r24, 0x00	; 0
     e3c:	08 95       	ret
     e3e:	fb 01       	movw	r30, r22
     e40:	01 90       	ld	r0, Z+
     e42:	00 20       	and	r0, r0
     e44:	e9 f7       	brne	.-6      	;  0xe40
     e46:	31 97       	sbiw	r30, 0x01	; 1
     e48:	af 01       	movw	r20, r30
     e4a:	46 1b       	sub	r20, r22
     e4c:	57 0b       	sbc	r21, r23
     e4e:	dc 01       	movw	r26, r24
     e50:	ed 91       	ld	r30, X+
     e52:	fc 91       	ld	r31, X
     e54:	02 80       	ldd	r0, Z+2	; 0x02
     e56:	f3 81       	ldd	r31, Z+3	; 0x03
     e58:	e0 2d       	mov	r30, r0
     e5a:	19 94       	eijmp
     e5c:	8f 92       	push	r8
     e5e:	9f 92       	push	r9
     e60:	af 92       	push	r10
     e62:	bf 92       	push	r11
     e64:	ef 92       	push	r14
     e66:	ff 92       	push	r15
     e68:	0f 93       	push	r16
     e6a:	1f 93       	push	r17
     e6c:	cf 93       	push	r28
     e6e:	df 93       	push	r29
     e70:	cd b7       	in	r28, 0x3d	; 61
     e72:	de b7       	in	r29, 0x3e	; 62
     e74:	a1 97       	sbiw	r28, 0x21	; 33
     e76:	0f b6       	in	r0, 0x3f	; 63
     e78:	f8 94       	cli
     e7a:	de bf       	out	0x3e, r29	; 62
     e7c:	0f be       	out	0x3f, r0	; 63
     e7e:	cd bf       	out	0x3d, r28	; 61
     e80:	7c 01       	movw	r14, r24
     e82:	fa 01       	movw	r30, r20
     e84:	cb 01       	movw	r24, r22
     e86:	19 a2       	std	Y+33, r1	; 0x21
     e88:	22 30       	cpi	r18, 0x02	; 2
     e8a:	08 f4       	brcc	.+2      	;  0xe8e
     e8c:	2a e0       	ldi	r18, 0x0A	; 10
     e8e:	8e 01       	movw	r16, r28
     e90:	0f 5d       	subi	r16, 0xDF	; 223
     e92:	1f 4f       	sbci	r17, 0xFF	; 255
     e94:	82 2e       	mov	r8, r18
     e96:	91 2c       	mov	r9, r1
     e98:	b1 2c       	mov	r11, r1
     e9a:	a1 2c       	mov	r10, r1
     e9c:	bf 01       	movw	r22, r30
     e9e:	a5 01       	movw	r20, r10
     ea0:	94 01       	movw	r18, r8
     ea2:	0e 94 ad 13 	call	0x275a	;  0x275a
     ea6:	f9 01       	movw	r30, r18
     ea8:	ca 01       	movw	r24, r20
     eaa:	6a 30       	cpi	r22, 0x0A	; 10
     eac:	0c f5       	brge	.+66     	;  0xef0
     eae:	60 5d       	subi	r22, 0xD0	; 208
     eb0:	d8 01       	movw	r26, r16
     eb2:	6e 93       	st	-X, r22
     eb4:	8d 01       	movw	r16, r26
     eb6:	23 2b       	or	r18, r19
     eb8:	24 2b       	or	r18, r20
     eba:	25 2b       	or	r18, r21
     ebc:	79 f7       	brne	.-34     	;  0xe9c
     ebe:	90 e0       	ldi	r25, 0x00	; 0
     ec0:	80 e0       	ldi	r24, 0x00	; 0
     ec2:	10 97       	sbiw	r26, 0x00	; 0
     ec4:	21 f0       	breq	.+8      	;  0xece
     ec6:	bd 01       	movw	r22, r26
     ec8:	c7 01       	movw	r24, r14
     eca:	0e 94 1f 07 	call	0xe3e	;  0xe3e
     ece:	a1 96       	adiw	r28, 0x21	; 33
     ed0:	0f b6       	in	r0, 0x3f	; 63
     ed2:	f8 94       	cli
     ed4:	de bf       	out	0x3e, r29	; 62
     ed6:	0f be       	out	0x3f, r0	; 63
     ed8:	cd bf       	out	0x3d, r28	; 61
     eda:	df 91       	pop	r29
     edc:	cf 91       	pop	r28
     ede:	1f 91       	pop	r17
     ee0:	0f 91       	pop	r16
     ee2:	ff 90       	pop	r15
     ee4:	ef 90       	pop	r14
     ee6:	bf 90       	pop	r11
     ee8:	af 90       	pop	r10
     eea:	9f 90       	pop	r9
     eec:	8f 90       	pop	r8
     eee:	08 95       	ret
     ef0:	69 5c       	subi	r22, 0xC9	; 201
     ef2:	de cf       	rjmp	.-68     	;  0xeb0
     ef4:	8f 92       	push	r8
     ef6:	9f 92       	push	r9
     ef8:	af 92       	push	r10
     efa:	bf 92       	push	r11
     efc:	cf 92       	push	r12
     efe:	df 92       	push	r13
     f00:	ef 92       	push	r14
     f02:	ff 92       	push	r15
     f04:	0f 93       	push	r16
     f06:	1f 93       	push	r17
     f08:	cf 93       	push	r28
     f0a:	df 93       	push	r29
     f0c:	7c 01       	movw	r14, r24
     f0e:	eb 01       	movw	r28, r22
     f10:	6c 01       	movw	r12, r24
     f12:	82 e0       	ldi	r24, 0x02	; 2
     f14:	c8 0e       	add	r12, r24
     f16:	d1 1c       	adc	r13, r1
     f18:	47 01       	movw	r8, r14
     f1a:	e5 e0       	ldi	r30, 0x05	; 5
     f1c:	8e 0e       	add	r8, r30
     f1e:	91 1c       	adc	r9, r1
     f20:	10 e0       	ldi	r17, 0x00	; 0
     f22:	00 e0       	ldi	r16, 0x00	; 0
     f24:	f6 01       	movw	r30, r12
     f26:	41 91       	ld	r20, Z+
     f28:	6f 01       	movw	r12, r30
     f2a:	50 e0       	ldi	r21, 0x00	; 0
     f2c:	70 e0       	ldi	r23, 0x00	; 0
     f2e:	60 e0       	ldi	r22, 0x00	; 0
     f30:	2a e0       	ldi	r18, 0x0A	; 10
     f32:	ce 01       	movw	r24, r28
     f34:	0e 94 2e 07 	call	0xe5c	;  0xe5c
     f38:	5c 01       	movw	r10, r24
     f3a:	e8 81       	ld	r30, Y
     f3c:	f9 81       	ldd	r31, Y+1	; 0x01
     f3e:	01 90       	ld	r0, Z+
     f40:	f0 81       	ld	r31, Z
     f42:	e0 2d       	mov	r30, r0
     f44:	6e e2       	ldi	r22, 0x2E	; 46
     f46:	ce 01       	movw	r24, r28
     f48:	19 95       	eicall
     f4a:	8a 0d       	add	r24, r10
     f4c:	9b 1d       	adc	r25, r11
     f4e:	08 0f       	add	r16, r24
     f50:	19 1f       	adc	r17, r25
     f52:	c8 14       	cp	r12, r8
     f54:	d9 04       	cpc	r13, r9
     f56:	31 f7       	brne	.-52     	;  0xf24
     f58:	f7 01       	movw	r30, r14
     f5a:	45 81       	ldd	r20, Z+5	; 0x05
     f5c:	50 e0       	ldi	r21, 0x00	; 0
     f5e:	70 e0       	ldi	r23, 0x00	; 0
     f60:	60 e0       	ldi	r22, 0x00	; 0
     f62:	2a e0       	ldi	r18, 0x0A	; 10
     f64:	ce 01       	movw	r24, r28
     f66:	0e 94 2e 07 	call	0xe5c	;  0xe5c
     f6a:	80 0f       	add	r24, r16
     f6c:	91 1f       	adc	r25, r17
     f6e:	df 91       	pop	r29
     f70:	cf 91       	pop	r28
     f72:	1f 91       	pop	r17
     f74:	0f 91       	pop	r16
     f76:	ff 90       	pop	r15
     f78:	ef 90       	pop	r14
     f7a:	df 90       	pop	r13
     f7c:	cf 90       	pop	r12
     f7e:	bf 90       	pop	r11
     f80:	af 90       	pop	r10
     f82:	9f 90       	pop	r9
     f84:	8f 90       	pop	r8
     f86:	08 95       	ret
     f88:	0f 93       	push	r16
     f8a:	1f 93       	push	r17
     f8c:	cf 93       	push	r28
     f8e:	df 93       	push	r29
     f90:	8c 01       	movw	r16, r24
     f92:	d0 e0       	ldi	r29, 0x00	; 0
     f94:	c0 e0       	ldi	r28, 0x00	; 0
     f96:	61 15       	cp	r22, r1
     f98:	71 05       	cpc	r23, r1
     f9a:	19 f0       	breq	.+6      	;  0xfa2
     f9c:	0e 94 1f 07 	call	0xe3e	;  0xe3e
     fa0:	ec 01       	movw	r28, r24
     fa2:	67 ee       	ldi	r22, 0xE7	; 231
     fa4:	72 e0       	ldi	r23, 0x02	; 2
     fa6:	c8 01       	movw	r24, r16
     fa8:	0e 94 1f 07 	call	0xe3e	;  0xe3e
     fac:	8c 0f       	add	r24, r28
     fae:	9d 1f       	adc	r25, r29
     fb0:	df 91       	pop	r29
     fb2:	cf 91       	pop	r28
     fb4:	1f 91       	pop	r17
     fb6:	0f 91       	pop	r16
     fb8:	08 95       	ret
     fba:	0f 93       	push	r16
     fbc:	1f 93       	push	r17
     fbe:	cf 93       	push	r28
     fc0:	df 93       	push	r29
     fc2:	ec 01       	movw	r28, r24
     fc4:	0e 94 34 04 	call	0x868	;  0x868
     fc8:	8c 01       	movw	r16, r24
     fca:	67 ee       	ldi	r22, 0xE7	; 231
     fcc:	72 e0       	ldi	r23, 0x02	; 2
     fce:	ce 01       	movw	r24, r28
     fd0:	0e 94 1f 07 	call	0xe3e	;  0xe3e
     fd4:	80 0f       	add	r24, r16
     fd6:	91 1f       	adc	r25, r17
     fd8:	df 91       	pop	r29
     fda:	cf 91       	pop	r28
     fdc:	1f 91       	pop	r17
     fde:	0f 91       	pop	r16
     fe0:	08 95       	ret
     fe2:	0c 94 1f 07 	jmp	0xe3e	;  0xe3e
     fe6:	3f 92       	push	r3
     fe8:	4f 92       	push	r4
     fea:	5f 92       	push	r5
     fec:	6f 92       	push	r6
     fee:	7f 92       	push	r7
     ff0:	8f 92       	push	r8
     ff2:	9f 92       	push	r9
     ff4:	af 92       	push	r10
     ff6:	bf 92       	push	r11
     ff8:	cf 92       	push	r12
     ffa:	df 92       	push	r13
     ffc:	ef 92       	push	r14
     ffe:	ff 92       	push	r15
    1000:	0f 93       	push	r16
    1002:	1f 93       	push	r17
    1004:	cf 93       	push	r28
    1006:	df 93       	push	r29
    1008:	6c 01       	movw	r12, r24
    100a:	2b 01       	movw	r4, r22
    100c:	34 2e       	mov	r3, r20
    100e:	80 91 8c 04 	lds	r24, 0x048C	;  0x80048c
    1012:	90 91 8d 04 	lds	r25, 0x048D	;  0x80048d
    1016:	90 93 91 04 	sts	0x0491, r25	;  0x800491
    101a:	80 93 90 04 	sts	0x0490, r24	;  0x800490
    101e:	0e 94 26 04 	call	0x84c	;  0x84c
    1022:	4b 01       	movw	r8, r22
    1024:	5c 01       	movw	r10, r24
    1026:	66 24       	eor	r6, r6
    1028:	6a 94       	dec	r6
    102a:	76 2c       	mov	r7, r6
    102c:	0d 2c       	mov	r0, r13
    102e:	00 0c       	add	r0, r0
    1030:	ee 08       	sbc	r14, r14
    1032:	ff 08       	sbc	r15, r15
    1034:	0e 94 26 04 	call	0x84c	;  0x84c
    1038:	68 19       	sub	r22, r8
    103a:	79 09       	sbc	r23, r9
    103c:	8a 09       	sbc	r24, r10
    103e:	9b 09       	sbc	r25, r11
    1040:	6c 15       	cp	r22, r12
    1042:	7d 05       	cpc	r23, r13
    1044:	8e 05       	cpc	r24, r14
    1046:	9f 05       	cpc	r25, r15
    1048:	08 f0       	brcs	.+2      	;  0x104c
    104a:	59 c0       	rjmp	.+178    	;  0x10fe
    104c:	8f ef       	ldi	r24, 0xFF	; 255
    104e:	68 16       	cp	r6, r24
    1050:	78 06       	cpc	r7, r24
    1052:	09 f0       	breq	.+2      	;  0x1056
    1054:	54 c0       	rjmp	.+168    	;  0x10fe
    1056:	e0 91 00 00 	lds	r30, 0x0000	;  0x800000
    105a:	f0 91 01 00 	lds	r31, 0x0001	;  0x800001
    105e:	00 84       	ldd	r0, Z+8	; 0x08
    1060:	f1 85       	ldd	r31, Z+9	; 0x09
    1062:	e0 2d       	mov	r30, r0
    1064:	90 e0       	ldi	r25, 0x00	; 0
    1066:	80 e0       	ldi	r24, 0x00	; 0
    1068:	19 95       	eicall
    106a:	89 2b       	or	r24, r25
    106c:	19 f3       	breq	.-58     	;  0x1034
    106e:	e0 91 00 00 	lds	r30, 0x0000	;  0x800000
    1072:	f0 91 01 00 	lds	r31, 0x0001	;  0x800001
    1076:	02 84       	ldd	r0, Z+10	; 0x0a
    1078:	f3 85       	ldd	r31, Z+11	; 0x0b
    107a:	e0 2d       	mov	r30, r0
    107c:	90 e0       	ldi	r25, 0x00	; 0
    107e:	80 e0       	ldi	r24, 0x00	; 0
    1080:	19 95       	eicall
    1082:	e0 91 90 04 	lds	r30, 0x0490	;  0x800490
    1086:	f0 91 91 04 	lds	r31, 0x0491	;  0x800491
    108a:	80 83       	st	Z, r24
    108c:	80 91 90 04 	lds	r24, 0x0490	;  0x800490
    1090:	90 91 91 04 	lds	r25, 0x0491	;  0x800491
    1094:	01 96       	adiw	r24, 0x01	; 1
    1096:	90 93 91 04 	sts	0x0491, r25	;  0x800491
    109a:	80 93 90 04 	sts	0x0490, r24	;  0x800490
    109e:	20 91 8e 04 	lds	r18, 0x048E	;  0x80048e
    10a2:	30 91 8f 04 	lds	r19, 0x048F	;  0x80048f
    10a6:	82 17       	cp	r24, r18
    10a8:	93 07       	cpc	r25, r19
    10aa:	40 f0       	brcs	.+16     	;  0x10bc
    10ac:	80 91 8c 04 	lds	r24, 0x048C	;  0x80048c
    10b0:	90 91 8d 04 	lds	r25, 0x048D	;  0x80048d
    10b4:	90 93 91 04 	sts	0x0491, r25	;  0x800491
    10b8:	80 93 90 04 	sts	0x0490, r24	;  0x800490
    10bc:	41 14       	cp	r4, r1
    10be:	51 04       	cpc	r5, r1
    10c0:	41 f0       	breq	.+16     	;  0x10d2
    10c2:	c2 01       	movw	r24, r4
    10c4:	0e 94 eb 06 	call	0xdd6	;  0xdd6
    10c8:	88 23       	and	r24, r24
    10ca:	19 f0       	breq	.+6      	;  0x10d2
    10cc:	85 e0       	ldi	r24, 0x05	; 5
    10ce:	68 2e       	mov	r6, r24
    10d0:	71 2c       	mov	r7, r1
    10d2:	33 20       	and	r3, r3
    10d4:	09 f4       	brne	.+2      	;  0x10d8
    10d6:	ae cf       	rjmp	.-164    	;  0x1034
    10d8:	0e e0       	ldi	r16, 0x0E	; 14
    10da:	12 e0       	ldi	r17, 0x02	; 2
    10dc:	d0 e0       	ldi	r29, 0x00	; 0
    10de:	c0 e0       	ldi	r28, 0x00	; 0
    10e0:	f8 01       	movw	r30, r16
    10e2:	81 91       	ld	r24, Z+
    10e4:	91 91       	ld	r25, Z+
    10e6:	8f 01       	movw	r16, r30
    10e8:	0e 94 eb 06 	call	0xdd6	;  0xdd6
    10ec:	81 11       	cpse	r24, r1
    10ee:	05 c0       	rjmp	.+10     	;  0x10fa
    10f0:	21 96       	adiw	r28, 0x01	; 1
    10f2:	c5 30       	cpi	r28, 0x05	; 5
    10f4:	d1 05       	cpc	r29, r1
    10f6:	a1 f7       	brne	.-24     	;  0x10e0
    10f8:	9d cf       	rjmp	.-198    	;  0x1034
    10fa:	3e 01       	movw	r6, r28
    10fc:	9b cf       	rjmp	.-202    	;  0x1034
    10fe:	0e 94 26 04 	call	0x84c	;  0x84c
    1102:	68 19       	sub	r22, r8
    1104:	79 09       	sbc	r23, r9
    1106:	8a 09       	sbc	r24, r10
    1108:	9b 09       	sbc	r25, r11
    110a:	6c 15       	cp	r22, r12
    110c:	7d 05       	cpc	r23, r13
    110e:	8e 05       	cpc	r24, r14
    1110:	9f 05       	cpc	r25, r15
    1112:	60 f0       	brcs	.+24     	;  0x112c
    1114:	6e e4       	ldi	r22, 0x4E	; 78
    1116:	72 e0       	ldi	r23, 0x02	; 2
    1118:	81 ee       	ldi	r24, 0xE1	; 225
    111a:	93 e0       	ldi	r25, 0x03	; 3
    111c:	0e 94 f1 07 	call	0xfe2	;  0xfe2
    1120:	68 e7       	ldi	r22, 0x78	; 120
    1122:	71 e0       	ldi	r23, 0x01	; 1
    1124:	81 ee       	ldi	r24, 0xE1	; 225
    1126:	93 e0       	ldi	r25, 0x03	; 3
    1128:	0e 94 dd 07 	call	0xfba	;  0xfba
    112c:	c3 01       	movw	r24, r6
    112e:	df 91       	pop	r29
    1130:	cf 91       	pop	r28
    1132:	1f 91       	pop	r17
    1134:	0f 91       	pop	r16
    1136:	ff 90       	pop	r15
    1138:	ef 90       	pop	r14
    113a:	df 90       	pop	r13
    113c:	cf 90       	pop	r12
    113e:	bf 90       	pop	r11
    1140:	af 90       	pop	r10
    1142:	9f 90       	pop	r9
    1144:	8f 90       	pop	r8
    1146:	7f 90       	pop	r7
    1148:	6f 90       	pop	r6
    114a:	5f 90       	pop	r5
    114c:	4f 90       	pop	r4
    114e:	3f 90       	pop	r3
    1150:	08 95       	ret
    1152:	0f 93       	push	r16
    1154:	1f 93       	push	r17
    1156:	cf 93       	push	r28
    1158:	df 93       	push	r29
    115a:	ec 01       	movw	r28, r24
    115c:	88 81       	ld	r24, Y
    115e:	99 81       	ldd	r25, Y+1	; 0x01
    1160:	00 97       	sbiw	r24, 0x00	; 0
    1162:	59 f0       	breq	.+22     	;  0x117a
    1164:	2a 81       	ldd	r18, Y+2	; 0x02
    1166:	3b 81       	ldd	r19, Y+3	; 0x03
    1168:	26 17       	cp	r18, r22
    116a:	37 07       	cpc	r19, r23
    116c:	30 f0       	brcs	.+12     	;  0x117a
    116e:	81 e0       	ldi	r24, 0x01	; 1
    1170:	df 91       	pop	r29
    1172:	cf 91       	pop	r28
    1174:	1f 91       	pop	r17
    1176:	0f 91       	pop	r16
    1178:	08 95       	ret
    117a:	8b 01       	movw	r16, r22
    117c:	6f 5f       	subi	r22, 0xFF	; 255
    117e:	7f 4f       	sbci	r23, 0xFF	; 255
    1180:	0e 94 fc 14 	call	0x29f8	;  0x29f8
    1184:	00 97       	sbiw	r24, 0x00	; 0
    1186:	59 f0       	breq	.+22     	;  0x119e
    1188:	99 83       	std	Y+1, r25	; 0x01
    118a:	88 83       	st	Y, r24
    118c:	1b 83       	std	Y+3, r17	; 0x03
    118e:	0a 83       	std	Y+2, r16	; 0x02
    1190:	2c 81       	ldd	r18, Y+4	; 0x04
    1192:	3d 81       	ldd	r19, Y+5	; 0x05
    1194:	23 2b       	or	r18, r19
    1196:	59 f7       	brne	.-42     	;  0x116e
    1198:	fc 01       	movw	r30, r24
    119a:	10 82       	st	Z, r1
    119c:	e8 cf       	rjmp	.-48     	;  0x116e
    119e:	80 e0       	ldi	r24, 0x00	; 0
    11a0:	e7 cf       	rjmp	.-50     	;  0x1170
    11a2:	ef 92       	push	r14
    11a4:	ff 92       	push	r15
    11a6:	0f 93       	push	r16
    11a8:	1f 93       	push	r17
    11aa:	cf 93       	push	r28
    11ac:	df 93       	push	r29
    11ae:	61 15       	cp	r22, r1
    11b0:	71 05       	cpc	r23, r1
    11b2:	41 f4       	brne	.+16     	;  0x11c4
    11b4:	80 e0       	ldi	r24, 0x00	; 0
    11b6:	df 91       	pop	r29
    11b8:	cf 91       	pop	r28
    11ba:	1f 91       	pop	r17
    11bc:	0f 91       	pop	r16
    11be:	ff 90       	pop	r15
    11c0:	ef 90       	pop	r14
    11c2:	08 95       	ret
    11c4:	41 15       	cp	r20, r1
    11c6:	51 05       	cpc	r21, r1
    11c8:	b1 f0       	breq	.+44     	;  0x11f6
    11ca:	7b 01       	movw	r14, r22
    11cc:	ec 01       	movw	r28, r24
    11ce:	0c 81       	ldd	r16, Y+4	; 0x04
    11d0:	1d 81       	ldd	r17, Y+5	; 0x05
    11d2:	04 0f       	add	r16, r20
    11d4:	15 1f       	adc	r17, r21
    11d6:	b8 01       	movw	r22, r16
    11d8:	0e 94 a9 08 	call	0x1152	;  0x1152
    11dc:	88 23       	and	r24, r24
    11de:	51 f3       	breq	.-44     	;  0x11b4
    11e0:	28 81       	ld	r18, Y
    11e2:	39 81       	ldd	r19, Y+1	; 0x01
    11e4:	8c 81       	ldd	r24, Y+4	; 0x04
    11e6:	9d 81       	ldd	r25, Y+5	; 0x05
    11e8:	b7 01       	movw	r22, r14
    11ea:	82 0f       	add	r24, r18
    11ec:	93 1f       	adc	r25, r19
    11ee:	0e 94 f6 15 	call	0x2bec	;  0x2bec
    11f2:	1d 83       	std	Y+5, r17	; 0x05
    11f4:	0c 83       	std	Y+4, r16	; 0x04
    11f6:	81 e0       	ldi	r24, 0x01	; 1
    11f8:	de cf       	rjmp	.-68     	;  0x11b6
    11fa:	cf 93       	push	r28
    11fc:	df 93       	push	r29
    11fe:	ec 01       	movw	r28, r24
    1200:	88 81       	ld	r24, Y
    1202:	99 81       	ldd	r25, Y+1	; 0x01
    1204:	00 97       	sbiw	r24, 0x00	; 0
    1206:	11 f0       	breq	.+4      	;  0x120c
    1208:	0e 94 73 14 	call	0x28e6	;  0x28e6
    120c:	19 82       	std	Y+1, r1	; 0x01
    120e:	18 82       	st	Y, r1
    1210:	1d 82       	std	Y+5, r1	; 0x05
    1212:	1c 82       	std	Y+4, r1	; 0x04
    1214:	1b 82       	std	Y+3, r1	; 0x03
    1216:	1a 82       	std	Y+2, r1	; 0x02
    1218:	df 91       	pop	r29
    121a:	cf 91       	pop	r28
    121c:	08 95       	ret
    121e:	cf 92       	push	r12
    1220:	df 92       	push	r13
    1222:	ef 92       	push	r14
    1224:	ff 92       	push	r15
    1226:	0f 93       	push	r16
    1228:	1f 93       	push	r17
    122a:	cf 93       	push	r28
    122c:	df 93       	push	r29
    122e:	cd b7       	in	r28, 0x3d	; 61
    1230:	de b7       	in	r29, 0x3e	; 62
    1232:	62 97       	sbiw	r28, 0x12	; 18
    1234:	0f b6       	in	r0, 0x3f	; 63
    1236:	f8 94       	cli
    1238:	de bf       	out	0x3e, r29	; 62
    123a:	0f be       	out	0x3f, r0	; 63
    123c:	cd bf       	out	0x3d, r28	; 61
    123e:	8c 01       	movw	r16, r24
    1240:	cb 01       	movw	r24, r22
    1242:	f8 01       	movw	r30, r16
    1244:	11 82       	std	Z+1, r1	; 0x01
    1246:	10 82       	st	Z, r1
    1248:	13 82       	std	Z+3, r1	; 0x03
    124a:	12 82       	std	Z+2, r1	; 0x02
    124c:	15 82       	std	Z+5, r1	; 0x05
    124e:	14 82       	std	Z+4, r1	; 0x04
    1250:	4a e0       	ldi	r20, 0x0A	; 10
    1252:	9e 01       	movw	r18, r28
    1254:	2f 5f       	subi	r18, 0xFF	; 255
    1256:	3f 4f       	sbci	r19, 0xFF	; 255
    1258:	69 01       	movw	r12, r18
    125a:	b9 01       	movw	r22, r18
    125c:	0e 94 91 10 	call	0x2122	;  0x2122
    1260:	f6 01       	movw	r30, r12
    1262:	01 90       	ld	r0, Z+
    1264:	00 20       	and	r0, r0
    1266:	e9 f7       	brne	.-6      	;  0x1262
    1268:	31 97       	sbiw	r30, 0x01	; 1
    126a:	7f 01       	movw	r14, r30
    126c:	ec 18       	sub	r14, r12
    126e:	fd 08       	sbc	r15, r13
    1270:	b7 01       	movw	r22, r14
    1272:	c8 01       	movw	r24, r16
    1274:	0e 94 a9 08 	call	0x1152	;  0x1152
    1278:	81 11       	cpse	r24, r1
    127a:	12 c0       	rjmp	.+36     	;  0x12a0
    127c:	c8 01       	movw	r24, r16
    127e:	0e 94 fd 08 	call	0x11fa	;  0x11fa
    1282:	62 96       	adiw	r28, 0x12	; 18
    1284:	0f b6       	in	r0, 0x3f	; 63
    1286:	f8 94       	cli
    1288:	de bf       	out	0x3e, r29	; 62
    128a:	0f be       	out	0x3f, r0	; 63
    128c:	cd bf       	out	0x3d, r28	; 61
    128e:	df 91       	pop	r29
    1290:	cf 91       	pop	r28
    1292:	1f 91       	pop	r17
    1294:	0f 91       	pop	r16
    1296:	ff 90       	pop	r15
    1298:	ef 90       	pop	r14
    129a:	df 90       	pop	r13
    129c:	cf 90       	pop	r12
    129e:	08 95       	ret
    12a0:	f8 01       	movw	r30, r16
    12a2:	f5 82       	std	Z+5, r15	; 0x05
    12a4:	e4 82       	std	Z+4, r14	; 0x04
    12a6:	b6 01       	movw	r22, r12
    12a8:	80 81       	ld	r24, Z
    12aa:	91 81       	ldd	r25, Z+1	; 0x01
    12ac:	0e 94 f6 15 	call	0x2bec	;  0x2bec
    12b0:	e8 cf       	rjmp	.-48     	;  0x1282
    12b2:	cf 93       	push	r28
    12b4:	df 93       	push	r29
    12b6:	ec 01       	movw	r28, r24
    12b8:	fb 01       	movw	r30, r22
    12ba:	01 90       	ld	r0, Z+
    12bc:	00 20       	and	r0, r0
    12be:	e9 f7       	brne	.-6      	;  0x12ba
    12c0:	31 97       	sbiw	r30, 0x01	; 1
    12c2:	af 01       	movw	r20, r30
    12c4:	46 1b       	sub	r20, r22
    12c6:	57 0b       	sbc	r21, r23
    12c8:	0e 94 d1 08 	call	0x11a2	;  0x11a2
    12cc:	81 11       	cpse	r24, r1
    12ce:	03 c0       	rjmp	.+6      	;  0x12d6
    12d0:	ce 01       	movw	r24, r28
    12d2:	0e 94 fd 08 	call	0x11fa	;  0x11fa
    12d6:	ce 01       	movw	r24, r28
    12d8:	df 91       	pop	r29
    12da:	cf 91       	pop	r28
    12dc:	08 95       	ret
    12de:	cf 93       	push	r28
    12e0:	df 93       	push	r29
    12e2:	ec 01       	movw	r28, r24
    12e4:	fb 01       	movw	r30, r22
    12e6:	44 81       	ldd	r20, Z+4	; 0x04
    12e8:	55 81       	ldd	r21, Z+5	; 0x05
    12ea:	60 81       	ld	r22, Z
    12ec:	71 81       	ldd	r23, Z+1	; 0x01
    12ee:	0e 94 d1 08 	call	0x11a2	;  0x11a2
    12f2:	81 11       	cpse	r24, r1
    12f4:	03 c0       	rjmp	.+6      	;  0x12fc
    12f6:	ce 01       	movw	r24, r28
    12f8:	0e 94 fd 08 	call	0x11fa	;  0x11fa
    12fc:	ce 01       	movw	r24, r28
    12fe:	df 91       	pop	r29
    1300:	cf 91       	pop	r28
    1302:	08 95       	ret
    1304:	ef 92       	push	r14
    1306:	ff 92       	push	r15
    1308:	0f 93       	push	r16
    130a:	1f 93       	push	r17
    130c:	cf 93       	push	r28
    130e:	df 93       	push	r29
    1310:	ec 01       	movw	r28, r24
    1312:	7b 01       	movw	r14, r22
    1314:	19 82       	std	Y+1, r1	; 0x01
    1316:	18 82       	st	Y, r1
    1318:	1b 82       	std	Y+3, r1	; 0x03
    131a:	1a 82       	std	Y+2, r1	; 0x02
    131c:	1d 82       	std	Y+5, r1	; 0x05
    131e:	1c 82       	std	Y+4, r1	; 0x04
    1320:	fb 01       	movw	r30, r22
    1322:	01 90       	ld	r0, Z+
    1324:	00 20       	and	r0, r0
    1326:	e9 f7       	brne	.-6      	;  0x1322
    1328:	31 97       	sbiw	r30, 0x01	; 1
    132a:	8f 01       	movw	r16, r30
    132c:	06 1b       	sub	r16, r22
    132e:	17 0b       	sbc	r17, r23
    1330:	b8 01       	movw	r22, r16
    1332:	0e 94 a9 08 	call	0x1152	;  0x1152
    1336:	81 11       	cpse	r24, r1
    1338:	09 c0       	rjmp	.+18     	;  0x134c
    133a:	ce 01       	movw	r24, r28
    133c:	df 91       	pop	r29
    133e:	cf 91       	pop	r28
    1340:	1f 91       	pop	r17
    1342:	0f 91       	pop	r16
    1344:	ff 90       	pop	r15
    1346:	ef 90       	pop	r14
    1348:	0c 94 fd 08 	jmp	0x11fa	;  0x11fa
    134c:	1d 83       	std	Y+5, r17	; 0x05
    134e:	0c 83       	std	Y+4, r16	; 0x04
    1350:	b7 01       	movw	r22, r14
    1352:	88 81       	ld	r24, Y
    1354:	99 81       	ldd	r25, Y+1	; 0x01
    1356:	df 91       	pop	r29
    1358:	cf 91       	pop	r28
    135a:	1f 91       	pop	r17
    135c:	0f 91       	pop	r16
    135e:	ff 90       	pop	r15
    1360:	ef 90       	pop	r14
    1362:	0c 94 f6 15 	jmp	0x2bec	;  0x2bec
    1366:	fc 01       	movw	r30, r24
    1368:	80 81       	ld	r24, Z
    136a:	91 81       	ldd	r25, Z+1	; 0x01
    136c:	00 97       	sbiw	r24, 0x00	; 0
    136e:	11 f0       	breq	.+4      	;  0x1374
    1370:	0c 94 73 14 	jmp	0x28e6	;  0x28e6
    1374:	08 95       	ret
    1376:	85 ed       	ldi	r24, 0xD5	; 213
    1378:	80 93 bc 00 	sts	0x00BC, r24	;  0x8000bc
    137c:	80 91 a6 03 	lds	r24, 0x03A6	;  0x8003a6
    1380:	90 91 a7 03 	lds	r25, 0x03A7	;  0x8003a7
    1384:	a0 91 a8 03 	lds	r26, 0x03A8	;  0x8003a8
    1388:	b0 91 a9 03 	lds	r27, 0x03A9	;  0x8003a9
    138c:	07 96       	adiw	r24, 0x07	; 7
    138e:	a1 1d       	adc	r26, r1
    1390:	b1 1d       	adc	r27, r1
    1392:	23 e0       	ldi	r18, 0x03	; 3
    1394:	b6 95       	lsr	r27
    1396:	a7 95       	ror	r26
    1398:	97 95       	ror	r25
    139a:	87 95       	ror	r24
    139c:	2a 95       	dec	r18
    139e:	d1 f7       	brne	.-12     	;  0x1394
    13a0:	20 91 bc 00 	lds	r18, 0x00BC	;  0x8000bc
    13a4:	24 fd       	sbrc	r18, 4
    13a6:	03 c0       	rjmp	.+6      	;  0x13ae
    13a8:	10 92 a4 03 	sts	0x03A4, r1	;  0x8003a4
    13ac:	08 95       	ret
    13ae:	40 91 a6 03 	lds	r20, 0x03A6	;  0x8003a6
    13b2:	50 91 a7 03 	lds	r21, 0x03A7	;  0x8003a7
    13b6:	60 91 a8 03 	lds	r22, 0x03A8	;  0x8003a8
    13ba:	70 91 a9 03 	lds	r23, 0x03A9	;  0x8003a9
    13be:	45 2b       	or	r20, r21
    13c0:	46 2b       	or	r20, r22
    13c2:	47 2b       	or	r20, r23
    13c4:	69 f3       	breq	.-38     	;  0x13a0
    13c6:	00 97       	sbiw	r24, 0x00	; 0
    13c8:	a1 05       	cpc	r26, r1
    13ca:	b1 05       	cpc	r27, r1
    13cc:	41 f0       	breq	.+16     	;  0x13de
    13ce:	2a e2       	ldi	r18, 0x2A	; 42
    13d0:	2a 95       	dec	r18
    13d2:	f1 f7       	brne	.-4      	;  0x13d0
    13d4:	00 c0       	rjmp	.+0      	;  0x13d6
    13d6:	01 97       	sbiw	r24, 0x01	; 1
    13d8:	a1 09       	sbc	r26, r1
    13da:	b1 09       	sbc	r27, r1
    13dc:	e1 cf       	rjmp	.-62     	;  0x13a0
    13de:	80 91 a5 03 	lds	r24, 0x03A5	;  0x8003a5
    13e2:	0c 94 ca 04 	jmp	0x994	;  0x994
    13e6:	cf 93       	push	r28
    13e8:	df 93       	push	r29
    13ea:	cd b7       	in	r28, 0x3d	; 61
    13ec:	de b7       	in	r29, 0x3e	; 62
    13ee:	c8 5c       	subi	r28, 0xC8	; 200
    13f0:	d1 09       	sbc	r29, r1
    13f2:	0f b6       	in	r0, 0x3f	; 63
    13f4:	f8 94       	cli
    13f6:	de bf       	out	0x3e, r29	; 62
    13f8:	0f be       	out	0x3f, r0	; 63
    13fa:	cd bf       	out	0x3d, r28	; 61
    13fc:	9e 01       	movw	r18, r28
    13fe:	2e 52       	subi	r18, 0x2E	; 46
    1400:	3f 4f       	sbci	r19, 0xFF	; 255
    1402:	c2 53       	subi	r28, 0x32	; 50
    1404:	df 4f       	sbci	r29, 0xFF	; 255
    1406:	48 81       	ld	r20, Y
    1408:	59 81       	ldd	r21, Y+1	; 0x01
    140a:	ce 5c       	subi	r28, 0xCE	; 206
    140c:	d0 40       	sbci	r29, 0x00	; 0
    140e:	68 ec       	ldi	r22, 0xC8	; 200
    1410:	70 e0       	ldi	r23, 0x00	; 0
    1412:	ce 01       	movw	r24, r28
    1414:	01 96       	adiw	r24, 0x01	; 1
    1416:	0e 94 be 10 	call	0x217c	;  0x217c
    141a:	0e 94 c0 01 	call	0x380	;  0x380
    141e:	be 01       	movw	r22, r28
    1420:	6f 5f       	subi	r22, 0xFF	; 255
    1422:	7f 4f       	sbci	r23, 0xFF	; 255
    1424:	90 e0       	ldi	r25, 0x00	; 0
    1426:	80 e0       	ldi	r24, 0x00	; 0
    1428:	0e 94 c4 07 	call	0xf88	;  0xf88
    142c:	41 e0       	ldi	r20, 0x01	; 1
    142e:	70 e0       	ldi	r23, 0x00	; 0
    1430:	60 e0       	ldi	r22, 0x00	; 0
    1432:	c0 53       	subi	r28, 0x30	; 48
    1434:	df 4f       	sbci	r29, 0xFF	; 255
    1436:	88 81       	ld	r24, Y
    1438:	99 81       	ldd	r25, Y+1	; 0x01
    143a:	c0 5d       	subi	r28, 0xD0	; 208
    143c:	d0 40       	sbci	r29, 0x00	; 0
    143e:	0e 94 f3 07 	call	0xfe6	;  0xfe6
    1442:	c8 53       	subi	r28, 0x38	; 56
    1444:	df 4f       	sbci	r29, 0xFF	; 255
    1446:	0f b6       	in	r0, 0x3f	; 63
    1448:	f8 94       	cli
    144a:	de bf       	out	0x3e, r29	; 62
    144c:	0f be       	out	0x3f, r0	; 63
    144e:	cd bf       	out	0x3d, r28	; 61
    1450:	df 91       	pop	r29
    1452:	cf 91       	pop	r28
    1454:	08 95       	ret
    1456:	ef 92       	push	r14
    1458:	ff 92       	push	r15
    145a:	0f 93       	push	r16
    145c:	1f 93       	push	r17
    145e:	cf 93       	push	r28
    1460:	df 93       	push	r29
    1462:	cd b7       	in	r28, 0x3d	; 61
    1464:	de b7       	in	r29, 0x3e	; 62
    1466:	68 97       	sbiw	r28, 0x18	; 24
    1468:	0f b6       	in	r0, 0x3f	; 63
    146a:	f8 94       	cli
    146c:	de bf       	out	0x3e, r29	; 62
    146e:	0f be       	out	0x3f, r0	; 63
    1470:	cd bf       	out	0x3d, r28	; 61
    1472:	7b 01       	movw	r14, r22
    1474:	fc 01       	movw	r30, r24
    1476:	24 81       	ldd	r18, Z+4	; 0x04
    1478:	35 81       	ldd	r19, Z+5	; 0x05
    147a:	23 2b       	or	r18, r19
    147c:	a9 f1       	breq	.+106    	;  0x14e8
    147e:	00 81       	ld	r16, Z
    1480:	11 81       	ldd	r17, Z+1	; 0x01
    1482:	69 e5       	ldi	r22, 0x59	; 89
    1484:	72 e0       	ldi	r23, 0x02	; 2
    1486:	c8 01       	movw	r24, r16
    1488:	0e 94 ed 15 	call	0x2bda	;  0x2bda
    148c:	89 2b       	or	r24, r25
    148e:	51 f4       	brne	.+20     	;  0x14a4
    1490:	80 91 18 03 	lds	r24, 0x0318	;  0x800318
    1494:	90 91 19 03 	lds	r25, 0x0319	;  0x800319
    1498:	8e 0d       	add	r24, r14
    149a:	9f 1d       	adc	r25, r15
    149c:	90 93 19 03 	sts	0x0319, r25	;  0x800319
    14a0:	80 93 18 03 	sts	0x0318, r24	;  0x800318
    14a4:	66 e6       	ldi	r22, 0x66	; 102
    14a6:	72 e0       	ldi	r23, 0x02	; 2
    14a8:	c8 01       	movw	r24, r16
    14aa:	0e 94 ed 15 	call	0x2bda	;  0x2bda
    14ae:	89 2b       	or	r24, r25
    14b0:	51 f4       	brne	.+20     	;  0x14c6
    14b2:	80 91 16 03 	lds	r24, 0x0316	;  0x800316
    14b6:	90 91 17 03 	lds	r25, 0x0317	;  0x800317
    14ba:	8e 0d       	add	r24, r14
    14bc:	9f 1d       	adc	r25, r15
    14be:	90 93 17 03 	sts	0x0317, r25	;  0x800317
    14c2:	80 93 16 03 	sts	0x0316, r24	;  0x800316
    14c6:	68 e6       	ldi	r22, 0x68	; 104
    14c8:	72 e0       	ldi	r23, 0x02	; 2
    14ca:	c8 01       	movw	r24, r16
    14cc:	0e 94 ed 15 	call	0x2bda	;  0x2bda
    14d0:	60 91 14 03 	lds	r22, 0x0314	;  0x800314
    14d4:	70 91 15 03 	lds	r23, 0x0315	;  0x800315
    14d8:	89 2b       	or	r24, r25
    14da:	31 f4       	brne	.+12     	;  0x14e8
    14dc:	6e 0d       	add	r22, r14
    14de:	7f 1d       	adc	r23, r15
    14e0:	70 93 15 03 	sts	0x0315, r23	;  0x800315
    14e4:	60 93 14 03 	sts	0x0314, r22	;  0x800314
    14e8:	81 e0       	ldi	r24, 0x01	; 1
    14ea:	0e 94 b6 06 	call	0xd6c	;  0xd6c
    14ee:	60 91 14 03 	lds	r22, 0x0314	;  0x800314
    14f2:	70 91 15 03 	lds	r23, 0x0315	;  0x800315
    14f6:	ce 01       	movw	r24, r28
    14f8:	43 96       	adiw	r24, 0x13	; 19
    14fa:	0e 94 0f 09 	call	0x121e	;  0x121e
    14fe:	60 91 16 03 	lds	r22, 0x0316	;  0x800316
    1502:	70 91 17 03 	lds	r23, 0x0317	;  0x800317
    1506:	ce 01       	movw	r24, r28
    1508:	0d 96       	adiw	r24, 0x0d	; 13
    150a:	0e 94 0f 09 	call	0x121e	;  0x121e
    150e:	60 91 18 03 	lds	r22, 0x0318	;  0x800318
    1512:	70 91 19 03 	lds	r23, 0x0319	;  0x800319
    1516:	ce 01       	movw	r24, r28
    1518:	07 96       	adiw	r24, 0x07	; 7
    151a:	0e 94 0f 09 	call	0x121e	;  0x121e
    151e:	6b e5       	ldi	r22, 0x5B	; 91
    1520:	72 e0       	ldi	r23, 0x02	; 2
    1522:	ce 01       	movw	r24, r28
    1524:	01 96       	adiw	r24, 0x01	; 1
    1526:	0e 94 82 09 	call	0x1304	;  0x1304
    152a:	be 01       	movw	r22, r28
    152c:	69 5f       	subi	r22, 0xF9	; 249
    152e:	7f 4f       	sbci	r23, 0xFF	; 255
    1530:	ce 01       	movw	r24, r28
    1532:	01 96       	adiw	r24, 0x01	; 1
    1534:	0e 94 6f 09 	call	0x12de	;  0x12de
    1538:	6e e5       	ldi	r22, 0x5E	; 94
    153a:	72 e0       	ldi	r23, 0x02	; 2
    153c:	0e 94 59 09 	call	0x12b2	;  0x12b2
    1540:	be 01       	movw	r22, r28
    1542:	63 5f       	subi	r22, 0xF3	; 243
    1544:	7f 4f       	sbci	r23, 0xFF	; 255
    1546:	0e 94 6f 09 	call	0x12de	;  0x12de
    154a:	62 e6       	ldi	r22, 0x62	; 98
    154c:	72 e0       	ldi	r23, 0x02	; 2
    154e:	0e 94 59 09 	call	0x12b2	;  0x12b2
    1552:	be 01       	movw	r22, r28
    1554:	6d 5e       	subi	r22, 0xED	; 237
    1556:	7f 4f       	sbci	r23, 0xFF	; 255
    1558:	0e 94 6f 09 	call	0x12de	;  0x12de
    155c:	6e ec       	ldi	r22, 0xCE	; 206
    155e:	72 e0       	ldi	r23, 0x02	; 2
    1560:	0e 94 59 09 	call	0x12b2	;  0x12b2
    1564:	fc 01       	movw	r30, r24
    1566:	44 81       	ldd	r20, Z+4	; 0x04
    1568:	55 81       	ldd	r21, Z+5	; 0x05
    156a:	60 81       	ld	r22, Z
    156c:	71 81       	ldd	r23, Z+1	; 0x01
    156e:	80 eb       	ldi	r24, 0xB0	; 176
    1570:	94 e0       	ldi	r25, 0x04	; 4
    1572:	0e 94 58 04 	call	0x8b0	;  0x8b0
    1576:	ce 01       	movw	r24, r28
    1578:	01 96       	adiw	r24, 0x01	; 1
    157a:	0e 94 b3 09 	call	0x1366	;  0x1366
    157e:	ce 01       	movw	r24, r28
    1580:	07 96       	adiw	r24, 0x07	; 7
    1582:	0e 94 b3 09 	call	0x1366	;  0x1366
    1586:	ce 01       	movw	r24, r28
    1588:	0d 96       	adiw	r24, 0x0d	; 13
    158a:	0e 94 b3 09 	call	0x1366	;  0x1366
    158e:	ce 01       	movw	r24, r28
    1590:	43 96       	adiw	r24, 0x13	; 19
    1592:	0e 94 b3 09 	call	0x1366	;  0x1366
    1596:	68 96       	adiw	r28, 0x18	; 24
    1598:	0f b6       	in	r0, 0x3f	; 63
    159a:	f8 94       	cli
    159c:	de bf       	out	0x3e, r29	; 62
    159e:	0f be       	out	0x3f, r0	; 63
    15a0:	cd bf       	out	0x3d, r28	; 61
    15a2:	df 91       	pop	r29
    15a4:	cf 91       	pop	r28
    15a6:	1f 91       	pop	r17
    15a8:	0f 91       	pop	r16
    15aa:	ff 90       	pop	r15
    15ac:	ef 90       	pop	r14
    15ae:	08 95       	ret
    15b0:	1f 92       	push	r1
    15b2:	0f 92       	push	r0
    15b4:	0f b6       	in	r0, 0x3f	; 63
    15b6:	0f 92       	push	r0
    15b8:	11 24       	eor	r1, r1
    15ba:	2f 93       	push	r18
    15bc:	3f 93       	push	r19
    15be:	8f 93       	push	r24
    15c0:	9f 93       	push	r25
    15c2:	af 93       	push	r26
    15c4:	bf 93       	push	r27
    15c6:	80 91 d9 03 	lds	r24, 0x03D9	;  0x8003d9
    15ca:	90 91 da 03 	lds	r25, 0x03DA	;  0x8003da
    15ce:	a0 91 db 03 	lds	r26, 0x03DB	;  0x8003db
    15d2:	b0 91 dc 03 	lds	r27, 0x03DC	;  0x8003dc
    15d6:	30 91 d8 03 	lds	r19, 0x03D8	;  0x8003d8
    15da:	23 e0       	ldi	r18, 0x03	; 3
    15dc:	23 0f       	add	r18, r19
    15de:	2d 37       	cpi	r18, 0x7D	; 125
    15e0:	58 f5       	brcc	.+86     	;  0x1638
    15e2:	01 96       	adiw	r24, 0x01	; 1
    15e4:	a1 1d       	adc	r26, r1
    15e6:	b1 1d       	adc	r27, r1
    15e8:	20 93 d8 03 	sts	0x03D8, r18	;  0x8003d8
    15ec:	80 93 d9 03 	sts	0x03D9, r24	;  0x8003d9
    15f0:	90 93 da 03 	sts	0x03DA, r25	;  0x8003da
    15f4:	a0 93 db 03 	sts	0x03DB, r26	;  0x8003db
    15f8:	b0 93 dc 03 	sts	0x03DC, r27	;  0x8003dc
    15fc:	80 91 dd 03 	lds	r24, 0x03DD	;  0x8003dd
    1600:	90 91 de 03 	lds	r25, 0x03DE	;  0x8003de
    1604:	a0 91 df 03 	lds	r26, 0x03DF	;  0x8003df
    1608:	b0 91 e0 03 	lds	r27, 0x03E0	;  0x8003e0
    160c:	01 96       	adiw	r24, 0x01	; 1
    160e:	a1 1d       	adc	r26, r1
    1610:	b1 1d       	adc	r27, r1
    1612:	80 93 dd 03 	sts	0x03DD, r24	;  0x8003dd
    1616:	90 93 de 03 	sts	0x03DE, r25	;  0x8003de
    161a:	a0 93 df 03 	sts	0x03DF, r26	;  0x8003df
    161e:	b0 93 e0 03 	sts	0x03E0, r27	;  0x8003e0
    1622:	bf 91       	pop	r27
    1624:	af 91       	pop	r26
    1626:	9f 91       	pop	r25
    1628:	8f 91       	pop	r24
    162a:	3f 91       	pop	r19
    162c:	2f 91       	pop	r18
    162e:	0f 90       	pop	r0
    1630:	0f be       	out	0x3f, r0	; 63
    1632:	0f 90       	pop	r0
    1634:	1f 90       	pop	r1
    1636:	18 95       	reti
    1638:	26 e8       	ldi	r18, 0x86	; 134
    163a:	23 0f       	add	r18, r19
    163c:	02 96       	adiw	r24, 0x02	; 2
    163e:	a1 1d       	adc	r26, r1
    1640:	b1 1d       	adc	r27, r1
    1642:	d2 cf       	rjmp	.-92     	;  0x15e8
    1644:	1f 92       	push	r1
    1646:	0f 92       	push	r0
    1648:	0f b6       	in	r0, 0x3f	; 63
    164a:	0f 92       	push	r0
    164c:	11 24       	eor	r1, r1
    164e:	0b b6       	in	r0, 0x3b	; 59
    1650:	0f 92       	push	r0
    1652:	2f 93       	push	r18
    1654:	3f 93       	push	r19
    1656:	4f 93       	push	r20
    1658:	5f 93       	push	r21
    165a:	6f 93       	push	r22
    165c:	7f 93       	push	r23
    165e:	8f 93       	push	r24
    1660:	9f 93       	push	r25
    1662:	af 93       	push	r26
    1664:	bf 93       	push	r27
    1666:	ef 93       	push	r30
    1668:	ff 93       	push	r31
    166a:	81 ee       	ldi	r24, 0xE1	; 225
    166c:	93 e0       	ldi	r25, 0x03	; 3
    166e:	0e 94 16 02 	call	0x42c	;  0x42c
    1672:	ff 91       	pop	r31
    1674:	ef 91       	pop	r30
    1676:	bf 91       	pop	r27
    1678:	af 91       	pop	r26
    167a:	9f 91       	pop	r25
    167c:	8f 91       	pop	r24
    167e:	7f 91       	pop	r23
    1680:	6f 91       	pop	r22
    1682:	5f 91       	pop	r21
    1684:	4f 91       	pop	r20
    1686:	3f 91       	pop	r19
    1688:	2f 91       	pop	r18
    168a:	0f 90       	pop	r0
    168c:	0b be       	out	0x3b, r0	; 59
    168e:	0f 90       	pop	r0
    1690:	0f be       	out	0x3f, r0	; 63
    1692:	0f 90       	pop	r0
    1694:	1f 90       	pop	r1
    1696:	18 95       	reti
    1698:	1f 92       	push	r1
    169a:	0f 92       	push	r0
    169c:	0f b6       	in	r0, 0x3f	; 63
    169e:	0f 92       	push	r0
    16a0:	11 24       	eor	r1, r1
    16a2:	0b b6       	in	r0, 0x3b	; 59
    16a4:	0f 92       	push	r0
    16a6:	2f 93       	push	r18
    16a8:	8f 93       	push	r24
    16aa:	9f 93       	push	r25
    16ac:	ef 93       	push	r30
    16ae:	ff 93       	push	r31
    16b0:	e0 91 f1 03 	lds	r30, 0x03F1	;  0x8003f1
    16b4:	f0 91 f2 03 	lds	r31, 0x03F2	;  0x8003f2
    16b8:	80 81       	ld	r24, Z
    16ba:	e0 91 f7 03 	lds	r30, 0x03F7	;  0x8003f7
    16be:	f0 91 f8 03 	lds	r31, 0x03F8	;  0x8003f8
    16c2:	82 fd       	sbrc	r24, 2
    16c4:	1d c0       	rjmp	.+58     	;  0x1700
    16c6:	90 81       	ld	r25, Z
    16c8:	80 91 fa 03 	lds	r24, 0x03FA	;  0x8003fa
    16cc:	8f 5f       	subi	r24, 0xFF	; 255
    16ce:	8f 73       	andi	r24, 0x3F	; 63
    16d0:	20 91 fb 03 	lds	r18, 0x03FB	;  0x8003fb
    16d4:	82 17       	cp	r24, r18
    16d6:	41 f0       	breq	.+16     	;  0x16e8
    16d8:	e0 91 fa 03 	lds	r30, 0x03FA	;  0x8003fa
    16dc:	f0 e0       	ldi	r31, 0x00	; 0
    16de:	ef 51       	subi	r30, 0x1F	; 31
    16e0:	fc 4f       	sbci	r31, 0xFC	; 252
    16e2:	95 8f       	std	Z+29, r25	; 0x1d
    16e4:	80 93 fa 03 	sts	0x03FA, r24	;  0x8003fa
    16e8:	ff 91       	pop	r31
    16ea:	ef 91       	pop	r30
    16ec:	9f 91       	pop	r25
    16ee:	8f 91       	pop	r24
    16f0:	2f 91       	pop	r18
    16f2:	0f 90       	pop	r0
    16f4:	0b be       	out	0x3b, r0	; 59
    16f6:	0f 90       	pop	r0
    16f8:	0f be       	out	0x3f, r0	; 63
    16fa:	0f 90       	pop	r0
    16fc:	1f 90       	pop	r1
    16fe:	18 95       	reti
    1700:	80 81       	ld	r24, Z
    1702:	f2 cf       	rjmp	.-28     	;  0x16e8
    1704:	1f 92       	push	r1
    1706:	0f 92       	push	r0
    1708:	0f b6       	in	r0, 0x3f	; 63
    170a:	0f 92       	push	r0
    170c:	11 24       	eor	r1, r1
    170e:	0b b6       	in	r0, 0x3b	; 59
    1710:	0f 92       	push	r0
    1712:	2f 93       	push	r18
    1714:	3f 93       	push	r19
    1716:	4f 93       	push	r20
    1718:	5f 93       	push	r21
    171a:	6f 93       	push	r22
    171c:	7f 93       	push	r23
    171e:	8f 93       	push	r24
    1720:	9f 93       	push	r25
    1722:	af 93       	push	r26
    1724:	bf 93       	push	r27
    1726:	ef 93       	push	r30
    1728:	ff 93       	push	r31
    172a:	80 91 b9 00 	lds	r24, 0x00B9	;  0x8000b9
    172e:	88 7f       	andi	r24, 0xF8	; 248
    1730:	80 36       	cpi	r24, 0x60	; 96
    1732:	09 f4       	brne	.+2      	;  0x1736
    1734:	4d c0       	rjmp	.+154    	;  0x17d0
    1736:	08 f0       	brcs	.+2      	;  0x173a
    1738:	40 c0       	rjmp	.+128    	;  0x17ba
    173a:	88 32       	cpi	r24, 0x28	; 40
    173c:	09 f4       	brne	.+2      	;  0x1740
    173e:	a9 c0       	rjmp	.+338    	;  0x1892
    1740:	28 f5       	brcc	.+74     	;  0x178c
    1742:	80 31       	cpi	r24, 0x10	; 16
    1744:	09 f4       	brne	.+2      	;  0x1748
    1746:	9d c0       	rjmp	.+314    	;  0x1882
    1748:	c8 f4       	brcc	.+50     	;  0x177c
    174a:	88 23       	and	r24, r24
    174c:	09 f4       	brne	.+2      	;  0x1750
    174e:	fb c0       	rjmp	.+502    	;  0x1946
    1750:	88 30       	cpi	r24, 0x08	; 8
    1752:	09 f4       	brne	.+2      	;  0x1756
    1754:	96 c0       	rjmp	.+300    	;  0x1882
    1756:	ff 91       	pop	r31
    1758:	ef 91       	pop	r30
    175a:	bf 91       	pop	r27
    175c:	af 91       	pop	r26
    175e:	9f 91       	pop	r25
    1760:	8f 91       	pop	r24
    1762:	7f 91       	pop	r23
    1764:	6f 91       	pop	r22
    1766:	5f 91       	pop	r21
    1768:	4f 91       	pop	r20
    176a:	3f 91       	pop	r19
    176c:	2f 91       	pop	r18
    176e:	0f 90       	pop	r0
    1770:	0b be       	out	0x3b, r0	; 59
    1772:	0f 90       	pop	r0
    1774:	0f be       	out	0x3f, r0	; 63
    1776:	0f 90       	pop	r0
    1778:	1f 90       	pop	r1
    177a:	18 95       	reti
    177c:	88 31       	cpi	r24, 0x18	; 24
    177e:	09 f4       	brne	.+2      	;  0x1782
    1780:	88 c0       	rjmp	.+272    	;  0x1892
    1782:	80 32       	cpi	r24, 0x20	; 32
    1784:	41 f7       	brne	.-48     	;  0x1756
    1786:	80 93 a2 03 	sts	0x03A2, r24	;  0x8003a2
    178a:	14 c0       	rjmp	.+40     	;  0x17b4
    178c:	80 34       	cpi	r24, 0x40	; 64
    178e:	09 f4       	brne	.+2      	;  0x1792
    1790:	9d c0       	rjmp	.+314    	;  0x18cc
    1792:	40 f4       	brcc	.+16     	;  0x17a4
    1794:	80 33       	cpi	r24, 0x30	; 48
    1796:	b9 f3       	breq	.-18     	;  0x1786
    1798:	88 33       	cpi	r24, 0x38	; 56
    179a:	e9 f6       	brne	.-70     	;  0x1756
    179c:	80 93 a2 03 	sts	0x03A2, r24	;  0x8003a2
    17a0:	85 ec       	ldi	r24, 0xC5	; 197
    17a2:	b0 c0       	rjmp	.+352    	;  0x1904
    17a4:	80 35       	cpi	r24, 0x50	; 80
    17a6:	09 f4       	brne	.+2      	;  0x17aa
    17a8:	85 c0       	rjmp	.+266    	;  0x18b4
    17aa:	88 35       	cpi	r24, 0x58	; 88
    17ac:	09 f4       	brne	.+2      	;  0x17b0
    17ae:	96 c0       	rjmp	.+300    	;  0x18dc
    17b0:	88 34       	cpi	r24, 0x48	; 72
    17b2:	89 f6       	brne	.-94     	;  0x1756
    17b4:	0e 94 bb 09 	call	0x1376	;  0x1376
    17b8:	ce cf       	rjmp	.-100    	;  0x1756
    17ba:	88 39       	cpi	r24, 0x98	; 152
    17bc:	09 f4       	brne	.+2      	;  0x17c0
    17be:	8c c0       	rjmp	.+280    	;  0x18d8
    17c0:	38 f5       	brcc	.+78     	;  0x1810
    17c2:	88 37       	cpi	r24, 0x78	; 120
    17c4:	29 f0       	breq	.+10     	;  0x17d0
    17c6:	50 f4       	brcc	.+20     	;  0x17dc
    17c8:	88 36       	cpi	r24, 0x68	; 104
    17ca:	11 f0       	breq	.+4      	;  0x17d0
    17cc:	80 37       	cpi	r24, 0x70	; 112
    17ce:	19 f6       	brne	.-122    	;  0x1756
    17d0:	83 e0       	ldi	r24, 0x03	; 3
    17d2:	80 93 a4 03 	sts	0x03A4, r24	;  0x8003a4
    17d6:	10 92 7d 03 	sts	0x037D, r1	;  0x80037d
    17da:	57 c0       	rjmp	.+174    	;  0x188a
    17dc:	88 38       	cpi	r24, 0x88	; 136
    17de:	09 f4       	brne	.+2      	;  0x17e2
    17e0:	7b c0       	rjmp	.+246    	;  0x18d8
    17e2:	80 39       	cpi	r24, 0x90	; 144
    17e4:	19 f0       	breq	.+6      	;  0x17ec
    17e6:	80 38       	cpi	r24, 0x80	; 128
    17e8:	09 f0       	breq	.+2      	;  0x17ec
    17ea:	b5 cf       	rjmp	.-150    	;  0x1756
    17ec:	80 91 7d 03 	lds	r24, 0x037D	;  0x80037d
    17f0:	80 32       	cpi	r24, 0x20	; 32
    17f2:	08 f0       	brcs	.+2      	;  0x17f6
    17f4:	71 c0       	rjmp	.+226    	;  0x18d8
    17f6:	e0 91 7d 03 	lds	r30, 0x037D	;  0x80037d
    17fa:	81 e0       	ldi	r24, 0x01	; 1
    17fc:	8e 0f       	add	r24, r30
    17fe:	80 93 7d 03 	sts	0x037D, r24	;  0x80037d
    1802:	80 91 bb 00 	lds	r24, 0x00BB	;  0x8000bb
    1806:	f0 e0       	ldi	r31, 0x00	; 0
    1808:	e3 5a       	subi	r30, 0xA3	; 163
    180a:	fc 4f       	sbci	r31, 0xFC	; 252
    180c:	80 83       	st	Z, r24
    180e:	3d c0       	rjmp	.+122    	;  0x188a
    1810:	80 3b       	cpi	r24, 0xB0	; 176
    1812:	39 f0       	breq	.+14     	;  0x1822
    1814:	e0 f4       	brcc	.+56     	;  0x184e
    1816:	80 3a       	cpi	r24, 0xA0	; 160
    1818:	09 f4       	brne	.+2      	;  0x181c
    181a:	79 c0       	rjmp	.+242    	;  0x190e
    181c:	88 3a       	cpi	r24, 0xA8	; 168
    181e:	09 f0       	breq	.+2      	;  0x1822
    1820:	9a cf       	rjmp	.-204    	;  0x1756
    1822:	84 e0       	ldi	r24, 0x04	; 4
    1824:	80 93 a4 03 	sts	0x03A4, r24	;  0x8003a4
    1828:	10 92 5c 03 	sts	0x035C, r1	;  0x80035c
    182c:	10 92 5b 03 	sts	0x035B, r1	;  0x80035b
    1830:	e0 91 ce 03 	lds	r30, 0x03CE	;  0x8003ce
    1834:	f0 91 cf 03 	lds	r31, 0x03CF	;  0x8003cf
    1838:	19 95       	eicall
    183a:	80 91 5b 03 	lds	r24, 0x035B	;  0x80035b
    183e:	81 11       	cpse	r24, r1
    1840:	0f c0       	rjmp	.+30     	;  0x1860
    1842:	81 e0       	ldi	r24, 0x01	; 1
    1844:	80 93 5b 03 	sts	0x035B, r24	;  0x80035b
    1848:	10 92 3b 03 	sts	0x033B, r1	;  0x80033b
    184c:	09 c0       	rjmp	.+18     	;  0x1860
    184e:	80 3c       	cpi	r24, 0xC0	; 192
    1850:	09 f4       	brne	.+2      	;  0x1854
    1852:	a6 cf       	rjmp	.-180    	;  0x17a0
    1854:	88 3c       	cpi	r24, 0xC8	; 200
    1856:	09 f4       	brne	.+2      	;  0x185a
    1858:	a3 cf       	rjmp	.-186    	;  0x17a0
    185a:	88 3b       	cpi	r24, 0xB8	; 184
    185c:	09 f0       	breq	.+2      	;  0x1860
    185e:	7b cf       	rjmp	.-266    	;  0x1756
    1860:	e0 91 5c 03 	lds	r30, 0x035C	;  0x80035c
    1864:	81 e0       	ldi	r24, 0x01	; 1
    1866:	8e 0f       	add	r24, r30
    1868:	80 93 5c 03 	sts	0x035C, r24	;  0x80035c
    186c:	f0 e0       	ldi	r31, 0x00	; 0
    186e:	e5 5c       	subi	r30, 0xC5	; 197
    1870:	fc 4f       	sbci	r31, 0xFC	; 252
    1872:	80 81       	ld	r24, Z
    1874:	80 93 bb 00 	sts	0x00BB, r24	;  0x8000bb
    1878:	90 91 5c 03 	lds	r25, 0x035C	;  0x80035c
    187c:	80 91 5b 03 	lds	r24, 0x035B	;  0x80035b
    1880:	29 c0       	rjmp	.+82     	;  0x18d4
    1882:	80 91 7f 03 	lds	r24, 0x037F	;  0x80037f
    1886:	80 93 bb 00 	sts	0x00BB, r24	;  0x8000bb
    188a:	85 ec       	ldi	r24, 0xC5	; 197
    188c:	80 93 bc 00 	sts	0x00BC, r24	;  0x8000bc
    1890:	62 cf       	rjmp	.-316    	;  0x1756
    1892:	90 91 a1 03 	lds	r25, 0x03A1	;  0x8003a1
    1896:	80 91 a0 03 	lds	r24, 0x03A0	;  0x8003a0
    189a:	98 17       	cp	r25, r24
    189c:	58 f5       	brcc	.+86     	;  0x18f4
    189e:	e0 91 a1 03 	lds	r30, 0x03A1	;  0x8003a1
    18a2:	81 e0       	ldi	r24, 0x01	; 1
    18a4:	8e 0f       	add	r24, r30
    18a6:	80 93 a1 03 	sts	0x03A1, r24	;  0x8003a1
    18aa:	f0 e0       	ldi	r31, 0x00	; 0
    18ac:	e0 58       	subi	r30, 0x80	; 128
    18ae:	fc 4f       	sbci	r31, 0xFC	; 252
    18b0:	80 81       	ld	r24, Z
    18b2:	e9 cf       	rjmp	.-46     	;  0x1886
    18b4:	e0 91 a1 03 	lds	r30, 0x03A1	;  0x8003a1
    18b8:	81 e0       	ldi	r24, 0x01	; 1
    18ba:	8e 0f       	add	r24, r30
    18bc:	80 93 a1 03 	sts	0x03A1, r24	;  0x8003a1
    18c0:	80 91 bb 00 	lds	r24, 0x00BB	;  0x8000bb
    18c4:	f0 e0       	ldi	r31, 0x00	; 0
    18c6:	e0 58       	subi	r30, 0x80	; 128
    18c8:	fc 4f       	sbci	r31, 0xFC	; 252
    18ca:	80 83       	st	Z, r24
    18cc:	90 91 a1 03 	lds	r25, 0x03A1	;  0x8003a1
    18d0:	80 91 a0 03 	lds	r24, 0x03A0	;  0x8003a0
    18d4:	98 17       	cp	r25, r24
    18d6:	c8 f2       	brcs	.-78     	;  0x188a
    18d8:	85 e8       	ldi	r24, 0x85	; 133
    18da:	d8 cf       	rjmp	.-80     	;  0x188c
    18dc:	e0 91 a1 03 	lds	r30, 0x03A1	;  0x8003a1
    18e0:	81 e0       	ldi	r24, 0x01	; 1
    18e2:	8e 0f       	add	r24, r30
    18e4:	80 93 a1 03 	sts	0x03A1, r24	;  0x8003a1
    18e8:	80 91 bb 00 	lds	r24, 0x00BB	;  0x8000bb
    18ec:	f0 e0       	ldi	r31, 0x00	; 0
    18ee:	e0 58       	subi	r30, 0x80	; 128
    18f0:	fc 4f       	sbci	r31, 0xFC	; 252
    18f2:	80 83       	st	Z, r24
    18f4:	80 91 a3 03 	lds	r24, 0x03A3	;  0x8003a3
    18f8:	81 11       	cpse	r24, r1
    18fa:	5c cf       	rjmp	.-328    	;  0x17b4
    18fc:	81 e0       	ldi	r24, 0x01	; 1
    18fe:	80 93 7e 03 	sts	0x037E, r24	;  0x80037e
    1902:	84 ea       	ldi	r24, 0xA4	; 164
    1904:	80 93 bc 00 	sts	0x00BC, r24	;  0x8000bc
    1908:	10 92 a4 03 	sts	0x03A4, r1	;  0x8003a4
    190c:	24 cf       	rjmp	.-440    	;  0x1756
    190e:	85 ec       	ldi	r24, 0xC5	; 197
    1910:	80 93 bc 00 	sts	0x00BC, r24	;  0x8000bc
    1914:	10 92 a4 03 	sts	0x03A4, r1	;  0x8003a4
    1918:	80 91 7d 03 	lds	r24, 0x037D	;  0x80037d
    191c:	80 32       	cpi	r24, 0x20	; 32
    191e:	30 f4       	brcc	.+12     	;  0x192c
    1920:	e0 91 7d 03 	lds	r30, 0x037D	;  0x80037d
    1924:	f0 e0       	ldi	r31, 0x00	; 0
    1926:	e3 5a       	subi	r30, 0xA3	; 163
    1928:	fc 4f       	sbci	r31, 0xFC	; 252
    192a:	10 82       	st	Z, r1
    192c:	60 91 7d 03 	lds	r22, 0x037D	;  0x80037d
    1930:	70 e0       	ldi	r23, 0x00	; 0
    1932:	e0 91 cc 03 	lds	r30, 0x03CC	;  0x8003cc
    1936:	f0 91 cd 03 	lds	r31, 0x03CD	;  0x8003cd
    193a:	8d e5       	ldi	r24, 0x5D	; 93
    193c:	93 e0       	ldi	r25, 0x03	; 3
    193e:	19 95       	eicall
    1940:	10 92 7d 03 	sts	0x037D, r1	;  0x80037d
    1944:	08 cf       	rjmp	.-496    	;  0x1756
    1946:	10 92 a2 03 	sts	0x03A2, r1	;  0x8003a2
    194a:	34 cf       	rjmp	.-408    	;  0x17b4
    194c:	0f 93       	push	r16
    194e:	1f 93       	push	r17
    1950:	cf 93       	push	r28
    1952:	df 93       	push	r29
    1954:	e1 ee       	ldi	r30, 0xE1	; 225
    1956:	f3 e0       	ldi	r31, 0x03	; 3
    1958:	13 82       	std	Z+3, r1	; 0x03
    195a:	12 82       	std	Z+2, r1	; 0x02
    195c:	88 ee       	ldi	r24, 0xE8	; 232
    195e:	93 e0       	ldi	r25, 0x03	; 3
    1960:	a0 e0       	ldi	r26, 0x00	; 0
    1962:	b0 e0       	ldi	r27, 0x00	; 0
    1964:	84 83       	std	Z+4, r24	; 0x04
    1966:	95 83       	std	Z+5, r25	; 0x05
    1968:	a6 83       	std	Z+6, r26	; 0x06
    196a:	b7 83       	std	Z+7, r27	; 0x07
    196c:	2c e1       	ldi	r18, 0x1C	; 28
    196e:	32 e0       	ldi	r19, 0x02	; 2
    1970:	31 83       	std	Z+1, r19	; 0x01
    1972:	20 83       	st	Z, r18
    1974:	25 ec       	ldi	r18, 0xC5	; 197
    1976:	30 e0       	ldi	r19, 0x00	; 0
    1978:	35 87       	std	Z+13, r19	; 0x0d
    197a:	24 87       	std	Z+12, r18	; 0x0c
    197c:	24 ec       	ldi	r18, 0xC4	; 196
    197e:	30 e0       	ldi	r19, 0x00	; 0
    1980:	37 87       	std	Z+15, r19	; 0x0f
    1982:	26 87       	std	Z+14, r18	; 0x0e
    1984:	20 ec       	ldi	r18, 0xC0	; 192
    1986:	30 e0       	ldi	r19, 0x00	; 0
    1988:	31 8b       	std	Z+17, r19	; 0x11
    198a:	20 8b       	std	Z+16, r18	; 0x10
    198c:	21 ec       	ldi	r18, 0xC1	; 193
    198e:	30 e0       	ldi	r19, 0x00	; 0
    1990:	33 8b       	std	Z+19, r19	; 0x13
    1992:	22 8b       	std	Z+18, r18	; 0x12
    1994:	22 ec       	ldi	r18, 0xC2	; 194
    1996:	30 e0       	ldi	r19, 0x00	; 0
    1998:	35 8b       	std	Z+21, r19	; 0x15
    199a:	24 8b       	std	Z+20, r18	; 0x14
    199c:	26 ec       	ldi	r18, 0xC6	; 198
    199e:	30 e0       	ldi	r19, 0x00	; 0
    19a0:	37 8b       	std	Z+23, r19	; 0x17
    19a2:	26 8b       	std	Z+22, r18	; 0x16
    19a4:	11 8e       	std	Z+25, r1	; 0x19
    19a6:	12 8e       	std	Z+26, r1	; 0x1a
    19a8:	13 8e       	std	Z+27, r1	; 0x1b
    19aa:	14 8e       	std	Z+28, r1	; 0x1c
    19ac:	ee e7       	ldi	r30, 0x7E	; 126
    19ae:	f4 e0       	ldi	r31, 0x04	; 4
    19b0:	13 82       	std	Z+3, r1	; 0x03
    19b2:	12 82       	std	Z+2, r1	; 0x02
    19b4:	84 83       	std	Z+4, r24	; 0x04
    19b6:	95 83       	std	Z+5, r25	; 0x05
    19b8:	a6 83       	std	Z+6, r26	; 0x06
    19ba:	b7 83       	std	Z+7, r27	; 0x07
    19bc:	8e e2       	ldi	r24, 0x2E	; 46
    19be:	92 e0       	ldi	r25, 0x02	; 2
    19c0:	91 83       	std	Z+1, r25	; 0x01
    19c2:	80 83       	st	Z, r24
    19c4:	e2 e9       	ldi	r30, 0x92	; 146
    19c6:	f4 e0       	ldi	r31, 0x04	; 4
    19c8:	cc e4       	ldi	r28, 0x4C	; 76
    19ca:	d2 e0       	ldi	r29, 0x02	; 2
    19cc:	d1 83       	std	Z+1, r29	; 0x01
    19ce:	c0 83       	st	Z, r28
    19d0:	12 82       	std	Z+2, r1	; 0x02
    19d2:	13 82       	std	Z+3, r1	; 0x03
    19d4:	14 82       	std	Z+4, r1	; 0x04
    19d6:	15 82       	std	Z+5, r1	; 0x05
    19d8:	0a e8       	ldi	r16, 0x8A	; 138
    19da:	14 e0       	ldi	r17, 0x04	; 4
    19dc:	80 e2       	ldi	r24, 0x20	; 32
    19de:	90 e0       	ldi	r25, 0x00	; 0
    19e0:	f8 01       	movw	r30, r16
    19e2:	91 83       	std	Z+1, r25	; 0x01
    19e4:	80 83       	st	Z, r24
    19e6:	81 e2       	ldi	r24, 0x21	; 33
    19e8:	90 e0       	ldi	r25, 0x00	; 0
    19ea:	0e 94 d7 13 	call	0x27ae	;  0x27ae
    19ee:	f8 01       	movw	r30, r16
    19f0:	93 83       	std	Z+3, r25	; 0x03
    19f2:	82 83       	std	Z+2, r24	; 0x02
    19f4:	9c 01       	movw	r18, r24
    19f6:	20 5e       	subi	r18, 0xE0	; 224
    19f8:	3f 4f       	sbci	r19, 0xFF	; 255
    19fa:	35 83       	std	Z+5, r19	; 0x05
    19fc:	24 83       	std	Z+4, r18	; 0x04
    19fe:	97 83       	std	Z+7, r25	; 0x07
    1a00:	86 83       	std	Z+6, r24	; 0x06
    1a02:	21 e2       	ldi	r18, 0x21	; 33
    1a04:	fc 01       	movw	r30, r24
    1a06:	11 92       	st	Z+, r1
    1a08:	2a 95       	dec	r18
    1a0a:	e9 f7       	brne	.-6      	;  0x1a06
    1a0c:	e8 e9       	ldi	r30, 0x98	; 152
    1a0e:	f4 e0       	ldi	r31, 0x04	; 4
    1a10:	d1 83       	std	Z+1, r29	; 0x01
    1a12:	c0 83       	st	Z, r28
    1a14:	12 82       	std	Z+2, r1	; 0x02
    1a16:	13 82       	std	Z+3, r1	; 0x03
    1a18:	14 82       	std	Z+4, r1	; 0x04
    1a1a:	15 82       	std	Z+5, r1	; 0x05
    1a1c:	ee e9       	ldi	r30, 0x9E	; 158
    1a1e:	f4 e0       	ldi	r31, 0x04	; 4
    1a20:	d1 83       	std	Z+1, r29	; 0x01
    1a22:	c0 83       	st	Z, r28
    1a24:	12 82       	std	Z+2, r1	; 0x02
    1a26:	13 82       	std	Z+3, r1	; 0x03
    1a28:	14 82       	std	Z+4, r1	; 0x04
    1a2a:	15 82       	std	Z+5, r1	; 0x05
    1a2c:	e4 ea       	ldi	r30, 0xA4	; 164
    1a2e:	f4 e0       	ldi	r31, 0x04	; 4
    1a30:	d1 83       	std	Z+1, r29	; 0x01
    1a32:	c0 83       	st	Z, r28
    1a34:	12 82       	std	Z+2, r1	; 0x02
    1a36:	13 82       	std	Z+3, r1	; 0x03
    1a38:	14 82       	std	Z+4, r1	; 0x04
    1a3a:	15 82       	std	Z+5, r1	; 0x05
    1a3c:	ea ea       	ldi	r30, 0xAA	; 170
    1a3e:	f4 e0       	ldi	r31, 0x04	; 4
    1a40:	d1 83       	std	Z+1, r29	; 0x01
    1a42:	c0 83       	st	Z, r28
    1a44:	12 82       	std	Z+2, r1	; 0x02
    1a46:	13 82       	std	Z+3, r1	; 0x03
    1a48:	14 82       	std	Z+4, r1	; 0x04
    1a4a:	15 82       	std	Z+5, r1	; 0x05
    1a4c:	ec eb       	ldi	r30, 0xBC	; 188
    1a4e:	f4 e0       	ldi	r31, 0x04	; 4
    1a50:	d1 83       	std	Z+1, r29	; 0x01
    1a52:	c0 83       	st	Z, r28
    1a54:	12 82       	std	Z+2, r1	; 0x02
    1a56:	13 82       	std	Z+3, r1	; 0x03
    1a58:	14 82       	std	Z+4, r1	; 0x04
    1a5a:	15 82       	std	Z+5, r1	; 0x05
    1a5c:	e0 eb       	ldi	r30, 0xB0	; 176
    1a5e:	f4 e0       	ldi	r31, 0x04	; 4
    1a60:	13 82       	std	Z+3, r1	; 0x03
    1a62:	12 82       	std	Z+2, r1	; 0x02
    1a64:	80 e4       	ldi	r24, 0x40	; 64
    1a66:	92 e0       	ldi	r25, 0x02	; 2
    1a68:	91 83       	std	Z+1, r25	; 0x01
    1a6a:	80 83       	st	Z, r24
    1a6c:	87 e2       	ldi	r24, 0x27	; 39
    1a6e:	84 83       	std	Z+4, r24	; 0x04
    1a70:	80 e1       	ldi	r24, 0x10	; 16
    1a72:	81 87       	std	Z+9, r24	; 0x09
    1a74:	82 e0       	ldi	r24, 0x02	; 2
    1a76:	82 87       	std	Z+10, r24	; 0x0a
    1a78:	13 86       	std	Z+11, r1	; 0x0b
    1a7a:	df 91       	pop	r29
    1a7c:	cf 91       	pop	r28
    1a7e:	1f 91       	pop	r17
    1a80:	0f 91       	pop	r16
    1a82:	08 95       	ret
    1a84:	cf 93       	push	r28
    1a86:	df 93       	push	r29
    1a88:	cd b7       	in	r28, 0x3d	; 61
    1a8a:	de b7       	in	r29, 0x3e	; 62
    1a8c:	65 97       	sbiw	r28, 0x15	; 21
    1a8e:	0f b6       	in	r0, 0x3f	; 63
    1a90:	f8 94       	cli
    1a92:	de bf       	out	0x3e, r29	; 62
    1a94:	0f be       	out	0x3f, r0	; 63
    1a96:	cd bf       	out	0x3d, r28	; 61
    1a98:	78 94       	sei
    1a9a:	84 b5       	in	r24, 0x24	; 36
    1a9c:	82 60       	ori	r24, 0x02	; 2
    1a9e:	84 bd       	out	0x24, r24	; 36
    1aa0:	84 b5       	in	r24, 0x24	; 36
    1aa2:	81 60       	ori	r24, 0x01	; 1
    1aa4:	84 bd       	out	0x24, r24	; 36
    1aa6:	85 b5       	in	r24, 0x25	; 37
    1aa8:	82 60       	ori	r24, 0x02	; 2
    1aaa:	85 bd       	out	0x25, r24	; 37
    1aac:	85 b5       	in	r24, 0x25	; 37
    1aae:	81 60       	ori	r24, 0x01	; 1
    1ab0:	85 bd       	out	0x25, r24	; 37
    1ab2:	80 91 6e 00 	lds	r24, 0x006E	;  0x80006e
    1ab6:	81 60       	ori	r24, 0x01	; 1
    1ab8:	80 93 6e 00 	sts	0x006E, r24	;  0x80006e
    1abc:	10 92 81 00 	sts	0x0081, r1	;  0x800081
    1ac0:	80 91 81 00 	lds	r24, 0x0081	;  0x800081
    1ac4:	82 60       	ori	r24, 0x02	; 2
    1ac6:	80 93 81 00 	sts	0x0081, r24	;  0x800081
    1aca:	80 91 81 00 	lds	r24, 0x0081	;  0x800081
    1ace:	81 60       	ori	r24, 0x01	; 1
    1ad0:	80 93 81 00 	sts	0x0081, r24	;  0x800081
    1ad4:	80 91 80 00 	lds	r24, 0x0080	;  0x800080
    1ad8:	81 60       	ori	r24, 0x01	; 1
    1ada:	80 93 80 00 	sts	0x0080, r24	;  0x800080
    1ade:	80 91 b1 00 	lds	r24, 0x00B1	;  0x8000b1
    1ae2:	84 60       	ori	r24, 0x04	; 4
    1ae4:	80 93 b1 00 	sts	0x00B1, r24	;  0x8000b1
    1ae8:	80 91 b0 00 	lds	r24, 0x00B0	;  0x8000b0
    1aec:	81 60       	ori	r24, 0x01	; 1
    1aee:	80 93 b0 00 	sts	0x00B0, r24	;  0x8000b0
    1af2:	80 91 91 00 	lds	r24, 0x0091	;  0x800091
    1af6:	82 60       	ori	r24, 0x02	; 2
    1af8:	80 93 91 00 	sts	0x0091, r24	;  0x800091
    1afc:	80 91 91 00 	lds	r24, 0x0091	;  0x800091
    1b00:	81 60       	ori	r24, 0x01	; 1
    1b02:	80 93 91 00 	sts	0x0091, r24	;  0x800091
    1b06:	80 91 90 00 	lds	r24, 0x0090	;  0x800090
    1b0a:	81 60       	ori	r24, 0x01	; 1
    1b0c:	80 93 90 00 	sts	0x0090, r24	;  0x800090
    1b10:	80 91 a1 00 	lds	r24, 0x00A1	;  0x8000a1
    1b14:	82 60       	ori	r24, 0x02	; 2
    1b16:	80 93 a1 00 	sts	0x00A1, r24	;  0x8000a1
    1b1a:	80 91 a1 00 	lds	r24, 0x00A1	;  0x8000a1
    1b1e:	81 60       	ori	r24, 0x01	; 1
    1b20:	80 93 a1 00 	sts	0x00A1, r24	;  0x8000a1
    1b24:	80 91 a0 00 	lds	r24, 0x00A0	;  0x8000a0
    1b28:	81 60       	ori	r24, 0x01	; 1
    1b2a:	80 93 a0 00 	sts	0x00A0, r24	;  0x8000a0
    1b2e:	80 91 21 01 	lds	r24, 0x0121	;  0x800121
    1b32:	82 60       	ori	r24, 0x02	; 2
    1b34:	80 93 21 01 	sts	0x0121, r24	;  0x800121
    1b38:	80 91 21 01 	lds	r24, 0x0121	;  0x800121
    1b3c:	81 60       	ori	r24, 0x01	; 1
    1b3e:	80 93 21 01 	sts	0x0121, r24	;  0x800121
    1b42:	80 91 20 01 	lds	r24, 0x0120	;  0x800120
    1b46:	81 60       	ori	r24, 0x01	; 1
    1b48:	80 93 20 01 	sts	0x0120, r24	;  0x800120
    1b4c:	80 91 7a 00 	lds	r24, 0x007A	;  0x80007a
    1b50:	84 60       	ori	r24, 0x04	; 4
    1b52:	80 93 7a 00 	sts	0x007A, r24	;  0x80007a
    1b56:	80 91 7a 00 	lds	r24, 0x007A	;  0x80007a
    1b5a:	82 60       	ori	r24, 0x02	; 2
    1b5c:	80 93 7a 00 	sts	0x007A, r24	;  0x80007a
    1b60:	80 91 7a 00 	lds	r24, 0x007A	;  0x80007a
    1b64:	81 60       	ori	r24, 0x01	; 1
    1b66:	80 93 7a 00 	sts	0x007A, r24	;  0x80007a
    1b6a:	80 91 7a 00 	lds	r24, 0x007A	;  0x80007a
    1b6e:	80 68       	ori	r24, 0x80	; 128
    1b70:	80 93 7a 00 	sts	0x007A, r24	;  0x80007a
    1b74:	10 92 c1 00 	sts	0x00C1, r1	;  0x8000c1
    1b78:	10 92 d3 03 	sts	0x03D3, r1	;  0x8003d3
    1b7c:	10 92 d2 03 	sts	0x03D2, r1	;  0x8003d2
    1b80:	10 92 d1 03 	sts	0x03D1, r1	;  0x8003d1
    1b84:	10 92 d0 03 	sts	0x03D0, r1	;  0x8003d0
    1b88:	0e 94 ac 04 	call	0x958	;  0x958
    1b8c:	82 e3       	ldi	r24, 0x32	; 50
    1b8e:	94 e0       	ldi	r25, 0x04	; 4
    1b90:	90 93 cf 03 	sts	0x03CF, r25	;  0x8003cf
    1b94:	80 93 ce 03 	sts	0x03CE, r24	;  0x8003ce
    1b98:	83 e3       	ldi	r24, 0x33	; 51
    1b9a:	94 e0       	ldi	r25, 0x04	; 4
    1b9c:	90 93 cd 03 	sts	0x03CD, r25	;  0x8003cd
    1ba0:	80 93 cc 03 	sts	0x03CC, r24	;  0x8003cc
    1ba4:	10 92 b5 04 	sts	0x04B5, r1	;  0x8004b5
    1ba8:	80 91 ba 04 	lds	r24, 0x04BA	;  0x8004ba
    1bac:	82 30       	cpi	r24, 0x02	; 2
    1bae:	18 f0       	brcs	.+6      	;  0x1bb6
    1bb0:	98 e0       	ldi	r25, 0x08	; 8
    1bb2:	90 93 b5 04 	sts	0x04B5, r25	;  0x8004b5
    1bb6:	80 93 b8 04 	sts	0x04B8, r24	;  0x8004b8
    1bba:	62 e3       	ldi	r22, 0x32	; 50
    1bbc:	70 e0       	ldi	r23, 0x00	; 0
    1bbe:	80 e0       	ldi	r24, 0x00	; 0
    1bc0:	90 e0       	ldi	r25, 0x00	; 0
    1bc2:	0e 94 f4 03 	call	0x7e8	;  0x7e8
    1bc6:	60 91 bb 04 	lds	r22, 0x04BB	;  0x8004bb
    1bca:	80 eb       	ldi	r24, 0xB0	; 176
    1bcc:	94 e0       	ldi	r25, 0x04	; 4
    1bce:	0e 94 71 05 	call	0xae2	;  0xae2
    1bd2:	68 ee       	ldi	r22, 0xE8	; 232
    1bd4:	73 e0       	ldi	r23, 0x03	; 3
    1bd6:	80 e0       	ldi	r24, 0x00	; 0
    1bd8:	90 e0       	ldi	r25, 0x00	; 0
    1bda:	0e 94 f4 03 	call	0x7e8	;  0x7e8
    1bde:	60 e3       	ldi	r22, 0x30	; 48
    1be0:	80 eb       	ldi	r24, 0xB0	; 176
    1be2:	94 e0       	ldi	r25, 0x04	; 4
    1be4:	0e 94 86 06 	call	0xd0c	;  0xd0c
    1be8:	0b e4       	ldi	r16, 0x4B	; 75
    1bea:	16 e4       	ldi	r17, 0x46	; 70
    1bec:	c8 01       	movw	r24, r16
    1bee:	01 97       	sbiw	r24, 0x01	; 1
    1bf0:	f1 f7       	brne	.-4      	;  0x1bee
    1bf2:	60 e3       	ldi	r22, 0x30	; 48
    1bf4:	80 eb       	ldi	r24, 0xB0	; 176
    1bf6:	94 e0       	ldi	r25, 0x04	; 4
    1bf8:	0e 94 86 06 	call	0xd0c	;  0xd0c
    1bfc:	c8 01       	movw	r24, r16
    1bfe:	01 97       	sbiw	r24, 0x01	; 1
    1c00:	f1 f7       	brne	.-4      	;  0x1bfe
    1c02:	60 e3       	ldi	r22, 0x30	; 48
    1c04:	80 eb       	ldi	r24, 0xB0	; 176
    1c06:	94 e0       	ldi	r25, 0x04	; 4
    1c08:	0e 94 86 06 	call	0xd0c	;  0xd0c
    1c0c:	83 e5       	ldi	r24, 0x53	; 83
    1c0e:	92 e0       	ldi	r25, 0x02	; 2
    1c10:	01 97       	sbiw	r24, 0x01	; 1
    1c12:	f1 f7       	brne	.-4      	;  0x1c10
    1c14:	60 e2       	ldi	r22, 0x20	; 32
    1c16:	80 eb       	ldi	r24, 0xB0	; 176
    1c18:	94 e0       	ldi	r25, 0x04	; 4
    1c1a:	0e 94 86 06 	call	0xd0c	;  0xd0c
    1c1e:	60 91 b5 04 	lds	r22, 0x04B5	;  0x8004b5
    1c22:	60 62       	ori	r22, 0x20	; 32
    1c24:	40 e0       	ldi	r20, 0x00	; 0
    1c26:	80 eb       	ldi	r24, 0xB0	; 176
    1c28:	94 e0       	ldi	r25, 0x04	; 4
    1c2a:	0e 94 9f 06 	call	0xd3e	;  0xd3e
    1c2e:	84 e0       	ldi	r24, 0x04	; 4
    1c30:	80 93 b6 04 	sts	0x04B6, r24	;  0x8004b6
    1c34:	40 e0       	ldi	r20, 0x00	; 0
    1c36:	6c e0       	ldi	r22, 0x0C	; 12
    1c38:	80 eb       	ldi	r24, 0xB0	; 176
    1c3a:	94 e0       	ldi	r25, 0x04	; 4
    1c3c:	0e 94 9f 06 	call	0xd3e	;  0xd3e
    1c40:	40 e0       	ldi	r20, 0x00	; 0
    1c42:	61 e0       	ldi	r22, 0x01	; 1
    1c44:	80 eb       	ldi	r24, 0xB0	; 176
    1c46:	94 e0       	ldi	r25, 0x04	; 4
    1c48:	0e 94 9f 06 	call	0xd3e	;  0xd3e
    1c4c:	0b e3       	ldi	r16, 0x3B	; 59
    1c4e:	1f e1       	ldi	r17, 0x1F	; 31
    1c50:	c8 01       	movw	r24, r16
    1c52:	01 97       	sbiw	r24, 0x01	; 1
    1c54:	f1 f7       	brne	.-4      	;  0x1c52
    1c56:	82 e0       	ldi	r24, 0x02	; 2
    1c58:	80 93 b7 04 	sts	0x04B7, r24	;  0x8004b7
    1c5c:	40 e0       	ldi	r20, 0x00	; 0
    1c5e:	66 e0       	ldi	r22, 0x06	; 6
    1c60:	80 eb       	ldi	r24, 0xB0	; 176
    1c62:	94 e0       	ldi	r25, 0x04	; 4
    1c64:	0e 94 9f 06 	call	0xd3e	;  0xd3e
    1c68:	40 e0       	ldi	r20, 0x00	; 0
    1c6a:	62 e0       	ldi	r22, 0x02	; 2
    1c6c:	80 eb       	ldi	r24, 0xB0	; 176
    1c6e:	94 e0       	ldi	r25, 0x04	; 4
    1c70:	0e 94 9f 06 	call	0xd3e	;  0xd3e
    1c74:	c8 01       	movw	r24, r16
    1c76:	01 97       	sbiw	r24, 0x01	; 1
    1c78:	f1 f7       	brne	.-4      	;  0x1c76
    1c7a:	88 e0       	ldi	r24, 0x08	; 8
    1c7c:	80 93 bb 04 	sts	0x04BB, r24	;  0x8004bb
    1c80:	60 e0       	ldi	r22, 0x00	; 0
    1c82:	80 eb       	ldi	r24, 0xB0	; 176
    1c84:	94 e0       	ldi	r25, 0x04	; 4
    1c86:	0e 94 71 05 	call	0xae2	;  0xae2
    1c8a:	80 e0       	ldi	r24, 0x00	; 0
    1c8c:	0e 94 b6 06 	call	0xd6c	;  0xd6c
    1c90:	6a e6       	ldi	r22, 0x6A	; 106
    1c92:	72 e0       	ldi	r23, 0x02	; 2
    1c94:	80 eb       	ldi	r24, 0xB0	; 176
    1c96:	94 e0       	ldi	r25, 0x04	; 4
    1c98:	0e 94 f1 07 	call	0xfe2	;  0xfe2
    1c9c:	61 e0       	ldi	r22, 0x01	; 1
    1c9e:	86 e1       	ldi	r24, 0x16	; 22
    1ca0:	0e 94 9e 03 	call	0x73c	;  0x73c
    1ca4:	61 e0       	ldi	r22, 0x01	; 1
    1ca6:	87 e1       	ldi	r24, 0x17	; 23
    1ca8:	0e 94 9e 03 	call	0x73c	;  0x73c
    1cac:	61 e0       	ldi	r22, 0x01	; 1
    1cae:	88 e1       	ldi	r24, 0x18	; 24
    1cb0:	0e 94 9e 03 	call	0x73c	;  0x73c
    1cb4:	61 e0       	ldi	r22, 0x01	; 1
    1cb6:	89 e1       	ldi	r24, 0x19	; 25
    1cb8:	0e 94 9e 03 	call	0x73c	;  0x73c
    1cbc:	61 e0       	ldi	r22, 0x01	; 1
    1cbe:	8a e1       	ldi	r24, 0x1A	; 26
    1cc0:	0e 94 9e 03 	call	0x73c	;  0x73c
    1cc4:	61 e0       	ldi	r22, 0x01	; 1
    1cc6:	8b e1       	ldi	r24, 0x1B	; 27
    1cc8:	0e 94 9e 03 	call	0x73c	;  0x73c
    1ccc:	61 e0       	ldi	r22, 0x01	; 1
    1cce:	8b e0       	ldi	r24, 0x0B	; 11
    1cd0:	0e 94 9e 03 	call	0x73c	;  0x73c
    1cd4:	60 e0       	ldi	r22, 0x00	; 0
    1cd6:	8b e0       	ldi	r24, 0x0B	; 11
    1cd8:	0e 94 70 03 	call	0x6e0	;  0x6e0
    1cdc:	62 e0       	ldi	r22, 0x02	; 2
    1cde:	8c e1       	ldi	r24, 0x1C	; 28
    1ce0:	0e 94 9e 03 	call	0x73c	;  0x73c
    1ce4:	62 e0       	ldi	r22, 0x02	; 2
    1ce6:	8d e1       	ldi	r24, 0x1D	; 29
    1ce8:	0e 94 9e 03 	call	0x73c	;  0x73c
    1cec:	62 e0       	ldi	r22, 0x02	; 2
    1cee:	8e e1       	ldi	r24, 0x1E	; 30
    1cf0:	0e 94 9e 03 	call	0x73c	;  0x73c
    1cf4:	62 e0       	ldi	r22, 0x02	; 2
    1cf6:	8f e1       	ldi	r24, 0x1F	; 31
    1cf8:	0e 94 9e 03 	call	0x73c	;  0x73c
    1cfc:	62 e0       	ldi	r22, 0x02	; 2
    1cfe:	80 e2       	ldi	r24, 0x20	; 32
    1d00:	0e 94 9e 03 	call	0x73c	;  0x73c
    1d04:	62 e0       	ldi	r22, 0x02	; 2
    1d06:	81 e2       	ldi	r24, 0x21	; 33
    1d08:	0e 94 9e 03 	call	0x73c	;  0x73c
    1d0c:	81 e0       	ldi	r24, 0x01	; 1
    1d0e:	0e 94 b6 06 	call	0xd6c	;  0xd6c
    1d12:	6b e7       	ldi	r22, 0x7B	; 123
    1d14:	72 e0       	ldi	r23, 0x02	; 2
    1d16:	80 eb       	ldi	r24, 0xB0	; 176
    1d18:	94 e0       	ldi	r25, 0x04	; 4
    1d1a:	0e 94 f1 07 	call	0xfe2	;  0xfe2
    1d1e:	87 e8       	ldi	r24, 0x87	; 135
    1d20:	92 e0       	ldi	r25, 0x02	; 2
    1d22:	9f 93       	push	r25
    1d24:	8f 93       	push	r24
    1d26:	84 e9       	ldi	r24, 0x94	; 148
    1d28:	92 e0       	ldi	r25, 0x02	; 2
    1d2a:	9f 93       	push	r25
    1d2c:	8f 93       	push	r24
    1d2e:	8e e4       	ldi	r24, 0x4E	; 78
    1d30:	8f 93       	push	r24
    1d32:	80 e2       	ldi	r24, 0x20	; 32
    1d34:	8f 93       	push	r24
    1d36:	8a ea       	ldi	r24, 0xAA	; 170
    1d38:	91 e0       	ldi	r25, 0x01	; 1
    1d3a:	9f 93       	push	r25
    1d3c:	8f 93       	push	r24
    1d3e:	0e 94 f3 09 	call	0x13e6	;  0x13e6
    1d42:	0f b6       	in	r0, 0x3f	; 63
    1d44:	f8 94       	cli
    1d46:	de bf       	out	0x3e, r29	; 62
    1d48:	0f be       	out	0x3f, r0	; 63
    1d4a:	cd bf       	out	0x3d, r28	; 61
    1d4c:	6e e4       	ldi	r22, 0x4E	; 78
    1d4e:	72 e0       	ldi	r23, 0x02	; 2
    1d50:	89 2b       	or	r24, r25
    1d52:	09 f0       	breq	.+2      	;  0x1d56
    1d54:	7b c1       	rjmp	.+758    	;  0x204c
    1d56:	81 ee       	ldi	r24, 0xE1	; 225
    1d58:	93 e0       	ldi	r25, 0x03	; 3
    1d5a:	0e 94 f1 07 	call	0xfe2	;  0xfe2
    1d5e:	68 e8       	ldi	r22, 0x88	; 136
    1d60:	71 e0       	ldi	r23, 0x01	; 1
    1d62:	81 ee       	ldi	r24, 0xE1	; 225
    1d64:	93 e0       	ldi	r25, 0x03	; 3
    1d66:	0e 94 34 04 	call	0x868	;  0x868
    1d6a:	6e ec       	ldi	r22, 0xCE	; 206
    1d6c:	72 e0       	ldi	r23, 0x02	; 2
    1d6e:	81 ee       	ldi	r24, 0xE1	; 225
    1d70:	93 e0       	ldi	r25, 0x03	; 3
    1d72:	0e 94 f1 07 	call	0xfe2	;  0xfe2
    1d76:	64 e9       	ldi	r22, 0x94	; 148
    1d78:	72 e0       	ldi	r23, 0x02	; 2
    1d7a:	81 ee       	ldi	r24, 0xE1	; 225
    1d7c:	93 e0       	ldi	r25, 0x03	; 3
    1d7e:	0e 94 c4 07 	call	0xf88	;  0xf88
    1d82:	81 e0       	ldi	r24, 0x01	; 1
    1d84:	0e 94 b6 06 	call	0xd6c	;  0xd6c
    1d88:	6d e9       	ldi	r22, 0x9D	; 157
    1d8a:	72 e0       	ldi	r23, 0x02	; 2
    1d8c:	80 eb       	ldi	r24, 0xB0	; 176
    1d8e:	94 e0       	ldi	r25, 0x04	; 4
    1d90:	0e 94 f1 07 	call	0xfe2	;  0xfe2
    1d94:	8e 01       	movw	r16, r28
    1d96:	0d 5e       	subi	r16, 0xED	; 237
    1d98:	1f 4f       	sbci	r17, 0xFF	; 255
    1d9a:	63 ee       	ldi	r22, 0xE3	; 227
    1d9c:	71 e0       	ldi	r23, 0x01	; 1
    1d9e:	ce 01       	movw	r24, r28
    1da0:	0b 96       	adiw	r24, 0x0b	; 11
    1da2:	0e 94 8a 10 	call	0x2114	;  0x2114
    1da6:	60 ee       	ldi	r22, 0xE0	; 224
    1da8:	71 e0       	ldi	r23, 0x01	; 1
    1daa:	c8 01       	movw	r24, r16
    1dac:	0e 94 8a 10 	call	0x2114	;  0x2114
    1db0:	19 82       	std	Y+1, r1	; 0x01
    1db2:	0e 94 c0 01 	call	0x380	;  0x380
    1db6:	6b ee       	ldi	r22, 0xEB	; 235
    1db8:	71 e0       	ldi	r23, 0x01	; 1
    1dba:	90 e0       	ldi	r25, 0x00	; 0
    1dbc:	80 e0       	ldi	r24, 0x00	; 0
    1dbe:	0e 94 dd 07 	call	0xfba	;  0xfba
    1dc2:	41 e0       	ldi	r20, 0x01	; 1
    1dc4:	be 01       	movw	r22, r28
    1dc6:	65 5f       	subi	r22, 0xF5	; 245
    1dc8:	7f 4f       	sbci	r23, 0xFF	; 255
    1dca:	88 ee       	ldi	r24, 0xE8	; 232
    1dcc:	93 e0       	ldi	r25, 0x03	; 3
    1dce:	0e 94 f3 07 	call	0xfe6	;  0xfe6
    1dd2:	85 30       	cpi	r24, 0x05	; 5
    1dd4:	91 05       	cpc	r25, r1
    1dd6:	09 f0       	breq	.+2      	;  0x1dda
    1dd8:	74 c1       	rjmp	.+744    	;  0x20c2
    1dda:	80 91 8c 04 	lds	r24, 0x048C	;  0x80048c
    1dde:	90 91 8d 04 	lds	r25, 0x048D	;  0x80048d
    1de2:	90 93 91 04 	sts	0x0491, r25	;  0x800491
    1de6:	80 93 90 04 	sts	0x0490, r24	;  0x800490
    1dea:	40 91 8a 04 	lds	r20, 0x048A	;  0x80048a
    1dee:	50 91 8b 04 	lds	r21, 0x048B	;  0x80048b
    1df2:	4f 5f       	subi	r20, 0xFF	; 255
    1df4:	5f 4f       	sbci	r21, 0xFF	; 255
    1df6:	70 e0       	ldi	r23, 0x00	; 0
    1df8:	60 e0       	ldi	r22, 0x00	; 0
    1dfa:	0e 94 e6 15 	call	0x2bcc	;  0x2bcc
    1dfe:	41 e0       	ldi	r20, 0x01	; 1
    1e00:	b8 01       	movw	r22, r16
    1e02:	84 ef       	ldi	r24, 0xF4	; 244
    1e04:	91 e0       	ldi	r25, 0x01	; 1
    1e06:	0e 94 f3 07 	call	0xfe6	;  0xfe6
    1e0a:	05 97       	sbiw	r24, 0x05	; 5
    1e0c:	09 f0       	breq	.+2      	;  0x1e10
    1e0e:	3d c1       	rjmp	.+634    	;  0x208a
    1e10:	f8 01       	movw	r30, r16
    1e12:	01 90       	ld	r0, Z+
    1e14:	00 20       	and	r0, r0
    1e16:	e9 f7       	brne	.-6      	;  0x1e12
    1e18:	31 97       	sbiw	r30, 0x01	; 1
    1e1a:	e0 1b       	sub	r30, r16
    1e1c:	f1 0b       	sbc	r31, r17
    1e1e:	60 91 8c 04 	lds	r22, 0x048C	;  0x80048c
    1e22:	70 91 8d 04 	lds	r23, 0x048D	;  0x80048d
    1e26:	40 91 90 04 	lds	r20, 0x0490	;  0x800490
    1e2a:	50 91 91 04 	lds	r21, 0x0491	;  0x800491
    1e2e:	46 1b       	sub	r20, r22
    1e30:	57 0b       	sbc	r21, r23
    1e32:	4e 1b       	sub	r20, r30
    1e34:	5f 0b       	sbc	r21, r31
    1e36:	4a 30       	cpi	r20, 0x0A	; 10
    1e38:	51 05       	cpc	r21, r1
    1e3a:	10 f0       	brcs	.+4      	;  0x1e40
    1e3c:	49 e0       	ldi	r20, 0x09	; 9
    1e3e:	50 e0       	ldi	r21, 0x00	; 0
    1e40:	ce 01       	movw	r24, r28
    1e42:	01 96       	adiw	r24, 0x01	; 1
    1e44:	0e 94 fd 15 	call	0x2bfa	;  0x2bfa
    1e48:	41 e0       	ldi	r20, 0x01	; 1
    1e4a:	70 e0       	ldi	r23, 0x00	; 0
    1e4c:	60 e0       	ldi	r22, 0x00	; 0
    1e4e:	80 ed       	ldi	r24, 0xD0	; 208
    1e50:	97 e0       	ldi	r25, 0x07	; 7
    1e52:	0e 94 f3 07 	call	0xfe6	;  0xfe6
    1e56:	0f b6       	in	r0, 0x3f	; 63
    1e58:	f8 94       	cli
    1e5a:	de bf       	out	0x3e, r29	; 62
    1e5c:	0f be       	out	0x3f, r0	; 63
    1e5e:	cd bf       	out	0x3d, r28	; 61
    1e60:	ce 01       	movw	r24, r28
    1e62:	01 96       	adiw	r24, 0x01	; 1
    1e64:	0e 94 6c 10 	call	0x20d8	;  0x20d8
    1e68:	02 97       	sbiw	r24, 0x02	; 2
    1e6a:	03 97       	sbiw	r24, 0x03	; 3
    1e6c:	08 f0       	brcs	.+2      	;  0x1e70
    1e6e:	19 c1       	rjmp	.+562    	;  0x20a2
    1e70:	81 e0       	ldi	r24, 0x01	; 1
    1e72:	0e 94 b6 06 	call	0xd6c	;  0xd6c
    1e76:	6e eb       	ldi	r22, 0xBE	; 190
    1e78:	72 e0       	ldi	r23, 0x02	; 2
    1e7a:	80 eb       	ldi	r24, 0xB0	; 176
    1e7c:	94 e0       	ldi	r25, 0x04	; 4
    1e7e:	0e 94 f1 07 	call	0xfe2	;  0xfe2
    1e82:	0e 94 7b 06 	call	0xcf6	;  0xcf6
    1e86:	8c e1       	ldi	r24, 0x1C	; 28
    1e88:	0e 94 47 03 	call	0x68e	;  0x68e
    1e8c:	89 2b       	or	r24, r25
    1e8e:	d1 f4       	brne	.+52     	;  0x1ec4
    1e90:	41 e0       	ldi	r20, 0x01	; 1
    1e92:	50 e0       	ldi	r21, 0x00	; 0
    1e94:	67 e1       	ldi	r22, 0x17	; 23
    1e96:	70 e0       	ldi	r23, 0x00	; 0
    1e98:	86 e1       	ldi	r24, 0x16	; 22
    1e9a:	90 e0       	ldi	r25, 0x00	; 0
    1e9c:	0e 94 5c 06 	call	0xcb8	;  0xcb8
    1ea0:	69 e5       	ldi	r22, 0x59	; 89
    1ea2:	72 e0       	ldi	r23, 0x02	; 2
    1ea4:	ce 01       	movw	r24, r28
    1ea6:	01 96       	adiw	r24, 0x01	; 1
    1ea8:	0e 94 82 09 	call	0x1304	;  0x1304
    1eac:	61 e0       	ldi	r22, 0x01	; 1
    1eae:	70 e0       	ldi	r23, 0x00	; 0
    1eb0:	ce 01       	movw	r24, r28
    1eb2:	01 96       	adiw	r24, 0x01	; 1
    1eb4:	0e 94 2b 0a 	call	0x1456	;  0x1456
    1eb8:	ce 01       	movw	r24, r28
    1eba:	01 96       	adiw	r24, 0x01	; 1
    1ebc:	0e 94 b3 09 	call	0x1366	;  0x1366
    1ec0:	0e 94 7b 06 	call	0xcf6	;  0xcf6
    1ec4:	8d e1       	ldi	r24, 0x1D	; 29
    1ec6:	0e 94 47 03 	call	0x68e	;  0x68e
    1eca:	89 2b       	or	r24, r25
    1ecc:	d1 f4       	brne	.+52     	;  0x1f02
    1ece:	4f ef       	ldi	r20, 0xFF	; 255
    1ed0:	5f ef       	ldi	r21, 0xFF	; 255
    1ed2:	67 e1       	ldi	r22, 0x17	; 23
    1ed4:	70 e0       	ldi	r23, 0x00	; 0
    1ed6:	86 e1       	ldi	r24, 0x16	; 22
    1ed8:	90 e0       	ldi	r25, 0x00	; 0
    1eda:	0e 94 5c 06 	call	0xcb8	;  0xcb8
    1ede:	69 e5       	ldi	r22, 0x59	; 89
    1ee0:	72 e0       	ldi	r23, 0x02	; 2
    1ee2:	ce 01       	movw	r24, r28
    1ee4:	01 96       	adiw	r24, 0x01	; 1
    1ee6:	0e 94 82 09 	call	0x1304	;  0x1304
    1eea:	6f ef       	ldi	r22, 0xFF	; 255
    1eec:	7f ef       	ldi	r23, 0xFF	; 255
    1eee:	ce 01       	movw	r24, r28
    1ef0:	01 96       	adiw	r24, 0x01	; 1
    1ef2:	0e 94 2b 0a 	call	0x1456	;  0x1456
    1ef6:	ce 01       	movw	r24, r28
    1ef8:	01 96       	adiw	r24, 0x01	; 1
    1efa:	0e 94 b3 09 	call	0x1366	;  0x1366
    1efe:	0e 94 7b 06 	call	0xcf6	;  0xcf6
    1f02:	8e e1       	ldi	r24, 0x1E	; 30
    1f04:	0e 94 47 03 	call	0x68e	;  0x68e
    1f08:	89 2b       	or	r24, r25
    1f0a:	d1 f4       	brne	.+52     	;  0x1f40
    1f0c:	41 e0       	ldi	r20, 0x01	; 1
    1f0e:	50 e0       	ldi	r21, 0x00	; 0
    1f10:	69 e1       	ldi	r22, 0x19	; 25
    1f12:	70 e0       	ldi	r23, 0x00	; 0
    1f14:	88 e1       	ldi	r24, 0x18	; 24
    1f16:	90 e0       	ldi	r25, 0x00	; 0
    1f18:	0e 94 5c 06 	call	0xcb8	;  0xcb8
    1f1c:	66 e6       	ldi	r22, 0x66	; 102
    1f1e:	72 e0       	ldi	r23, 0x02	; 2
    1f20:	ce 01       	movw	r24, r28
    1f22:	01 96       	adiw	r24, 0x01	; 1
    1f24:	0e 94 82 09 	call	0x1304	;  0x1304
    1f28:	61 e0       	ldi	r22, 0x01	; 1
    1f2a:	70 e0       	ldi	r23, 0x00	; 0
    1f2c:	ce 01       	movw	r24, r28
    1f2e:	01 96       	adiw	r24, 0x01	; 1
    1f30:	0e 94 2b 0a 	call	0x1456	;  0x1456
    1f34:	ce 01       	movw	r24, r28
    1f36:	01 96       	adiw	r24, 0x01	; 1
    1f38:	0e 94 b3 09 	call	0x1366	;  0x1366
    1f3c:	0e 94 7b 06 	call	0xcf6	;  0xcf6
    1f40:	8f e1       	ldi	r24, 0x1F	; 31
    1f42:	0e 94 47 03 	call	0x68e	;  0x68e
    1f46:	89 2b       	or	r24, r25
    1f48:	d1 f4       	brne	.+52     	;  0x1f7e
    1f4a:	4f ef       	ldi	r20, 0xFF	; 255
    1f4c:	5f ef       	ldi	r21, 0xFF	; 255
    1f4e:	69 e1       	ldi	r22, 0x19	; 25
    1f50:	70 e0       	ldi	r23, 0x00	; 0
    1f52:	88 e1       	ldi	r24, 0x18	; 24
    1f54:	90 e0       	ldi	r25, 0x00	; 0
    1f56:	0e 94 5c 06 	call	0xcb8	;  0xcb8
    1f5a:	66 e6       	ldi	r22, 0x66	; 102
    1f5c:	72 e0       	ldi	r23, 0x02	; 2
    1f5e:	ce 01       	movw	r24, r28
    1f60:	01 96       	adiw	r24, 0x01	; 1
    1f62:	0e 94 82 09 	call	0x1304	;  0x1304
    1f66:	6f ef       	ldi	r22, 0xFF	; 255
    1f68:	7f ef       	ldi	r23, 0xFF	; 255
    1f6a:	ce 01       	movw	r24, r28
    1f6c:	01 96       	adiw	r24, 0x01	; 1
    1f6e:	0e 94 2b 0a 	call	0x1456	;  0x1456
    1f72:	ce 01       	movw	r24, r28
    1f74:	01 96       	adiw	r24, 0x01	; 1
    1f76:	0e 94 b3 09 	call	0x1366	;  0x1366
    1f7a:	0e 94 7b 06 	call	0xcf6	;  0xcf6
    1f7e:	80 e2       	ldi	r24, 0x20	; 32
    1f80:	0e 94 47 03 	call	0x68e	;  0x68e
    1f84:	89 2b       	or	r24, r25
    1f86:	d1 f4       	brne	.+52     	;  0x1fbc
    1f88:	41 e0       	ldi	r20, 0x01	; 1
    1f8a:	50 e0       	ldi	r21, 0x00	; 0
    1f8c:	6b e1       	ldi	r22, 0x1B	; 27
    1f8e:	70 e0       	ldi	r23, 0x00	; 0
    1f90:	8a e1       	ldi	r24, 0x1A	; 26
    1f92:	90 e0       	ldi	r25, 0x00	; 0
    1f94:	0e 94 5c 06 	call	0xcb8	;  0xcb8
    1f98:	68 e6       	ldi	r22, 0x68	; 104
    1f9a:	72 e0       	ldi	r23, 0x02	; 2
    1f9c:	ce 01       	movw	r24, r28
    1f9e:	01 96       	adiw	r24, 0x01	; 1
    1fa0:	0e 94 82 09 	call	0x1304	;  0x1304
    1fa4:	61 e0       	ldi	r22, 0x01	; 1
    1fa6:	70 e0       	ldi	r23, 0x00	; 0
    1fa8:	ce 01       	movw	r24, r28
    1faa:	01 96       	adiw	r24, 0x01	; 1
    1fac:	0e 94 2b 0a 	call	0x1456	;  0x1456
    1fb0:	ce 01       	movw	r24, r28
    1fb2:	01 96       	adiw	r24, 0x01	; 1
    1fb4:	0e 94 b3 09 	call	0x1366	;  0x1366
    1fb8:	0e 94 7b 06 	call	0xcf6	;  0xcf6
    1fbc:	81 e2       	ldi	r24, 0x21	; 33
    1fbe:	0e 94 47 03 	call	0x68e	;  0x68e
    1fc2:	89 2b       	or	r24, r25
    1fc4:	d1 f4       	brne	.+52     	;  0x1ffa
    1fc6:	4f ef       	ldi	r20, 0xFF	; 255
    1fc8:	5f ef       	ldi	r21, 0xFF	; 255
    1fca:	6b e1       	ldi	r22, 0x1B	; 27
    1fcc:	70 e0       	ldi	r23, 0x00	; 0
    1fce:	8a e1       	ldi	r24, 0x1A	; 26
    1fd0:	90 e0       	ldi	r25, 0x00	; 0
    1fd2:	0e 94 5c 06 	call	0xcb8	;  0xcb8
    1fd6:	68 e6       	ldi	r22, 0x68	; 104
    1fd8:	72 e0       	ldi	r23, 0x02	; 2
    1fda:	ce 01       	movw	r24, r28
    1fdc:	01 96       	adiw	r24, 0x01	; 1
    1fde:	0e 94 82 09 	call	0x1304	;  0x1304
    1fe2:	6f ef       	ldi	r22, 0xFF	; 255
    1fe4:	7f ef       	ldi	r23, 0xFF	; 255
    1fe6:	ce 01       	movw	r24, r28
    1fe8:	01 96       	adiw	r24, 0x01	; 1
    1fea:	0e 94 2b 0a 	call	0x1456	;  0x1456
    1fee:	ce 01       	movw	r24, r28
    1ff0:	01 96       	adiw	r24, 0x01	; 1
    1ff2:	0e 94 b3 09 	call	0x1366	;  0x1366
    1ff6:	0e 94 7b 06 	call	0xcf6	;  0xcf6
    1ffa:	0e 94 26 04 	call	0x84c	;  0x84c
    1ffe:	00 91 d4 03 	lds	r16, 0x03D4	;  0x8003d4
    2002:	10 91 d5 03 	lds	r17, 0x03D5	;  0x8003d5
    2006:	20 91 d6 03 	lds	r18, 0x03D6	;  0x8003d6
    200a:	30 91 d7 03 	lds	r19, 0x03D7	;  0x8003d7
    200e:	60 1b       	sub	r22, r16
    2010:	71 0b       	sbc	r23, r17
    2012:	82 0b       	sbc	r24, r18
    2014:	93 0b       	sbc	r25, r19
    2016:	60 3e       	cpi	r22, 0xE0	; 224
    2018:	73 49       	sbci	r23, 0x93	; 147
    201a:	84 40       	sbci	r24, 0x04	; 4
    201c:	91 05       	cpc	r25, r1
    201e:	68 f0       	brcs	.+26     	;  0x203a
    2020:	60 e0       	ldi	r22, 0x00	; 0
    2022:	8b e0       	ldi	r24, 0x0B	; 11
    2024:	0e 94 70 03 	call	0x6e0	;  0x6e0
    2028:	81 e0       	ldi	r24, 0x01	; 1
    202a:	0e 94 b6 06 	call	0xd6c	;  0xd6c
    202e:	60 ed       	ldi	r22, 0xD0	; 208
    2030:	72 e0       	ldi	r23, 0x02	; 2
    2032:	80 eb       	ldi	r24, 0xB0	; 176
    2034:	94 e0       	ldi	r25, 0x04	; 4
    2036:	0e 94 f1 07 	call	0xfe2	;  0xfe2
    203a:	64 e6       	ldi	r22, 0x64	; 100
    203c:	70 e0       	ldi	r23, 0x00	; 0
    203e:	80 e0       	ldi	r24, 0x00	; 0
    2040:	90 e0       	ldi	r25, 0x00	; 0
    2042:	0e 94 f4 03 	call	0x7e8	;  0x7e8
    2046:	0e 94 af 02 	call	0x55e	;  0x55e
    204a:	1d cf       	rjmp	.-454    	;  0x1e86
    204c:	81 ee       	ldi	r24, 0xE1	; 225
    204e:	93 e0       	ldi	r25, 0x03	; 3
    2050:	0e 94 f1 07 	call	0xfe2	;  0xfe2
    2054:	65 e9       	ldi	r22, 0x95	; 149
    2056:	71 e0       	ldi	r23, 0x01	; 1
    2058:	81 ee       	ldi	r24, 0xE1	; 225
    205a:	93 e0       	ldi	r25, 0x03	; 3
    205c:	0e 94 34 04 	call	0x868	;  0x868
    2060:	6e ec       	ldi	r22, 0xCE	; 206
    2062:	72 e0       	ldi	r23, 0x02	; 2
    2064:	81 ee       	ldi	r24, 0xE1	; 225
    2066:	93 e0       	ldi	r25, 0x03	; 3
    2068:	0e 94 f1 07 	call	0xfe2	;  0xfe2
    206c:	64 e9       	ldi	r22, 0x94	; 148
    206e:	72 e0       	ldi	r23, 0x02	; 2
    2070:	81 ee       	ldi	r24, 0xE1	; 225
    2072:	93 e0       	ldi	r25, 0x03	; 3
    2074:	0e 94 c4 07 	call	0xf88	;  0xf88
    2078:	68 ee       	ldi	r22, 0xE8	; 232
    207a:	73 e0       	ldi	r23, 0x03	; 3
    207c:	80 e0       	ldi	r24, 0x00	; 0
    207e:	90 e0       	ldi	r25, 0x00	; 0
    2080:	0e 94 f4 03 	call	0x7e8	;  0x7e8
    2084:	0e 94 c0 01 	call	0x380	;  0x380
    2088:	7c ce       	rjmp	.-776    	;  0x1d82
    208a:	6e e4       	ldi	r22, 0x4E	; 78
    208c:	72 e0       	ldi	r23, 0x02	; 2
    208e:	81 ee       	ldi	r24, 0xE1	; 225
    2090:	93 e0       	ldi	r25, 0x03	; 3
    2092:	0e 94 f1 07 	call	0xfe2	;  0xfe2
    2096:	61 ec       	ldi	r22, 0xC1	; 193
    2098:	71 e0       	ldi	r23, 0x01	; 1
    209a:	81 ee       	ldi	r24, 0xE1	; 225
    209c:	93 e0       	ldi	r25, 0x03	; 3
    209e:	0e 94 dd 07 	call	0xfba	;  0xfba
    20a2:	68 ee       	ldi	r22, 0xE8	; 232
    20a4:	73 e0       	ldi	r23, 0x03	; 3
    20a6:	80 e0       	ldi	r24, 0x00	; 0
    20a8:	90 e0       	ldi	r25, 0x00	; 0
    20aa:	0e 94 f4 03 	call	0x7e8	;  0x7e8
    20ae:	81 e0       	ldi	r24, 0x01	; 1
    20b0:	0e 94 b6 06 	call	0xd6c	;  0xd6c
    20b4:	60 eb       	ldi	r22, 0xB0	; 176
    20b6:	72 e0       	ldi	r23, 0x02	; 2
    20b8:	80 eb       	ldi	r24, 0xB0	; 176
    20ba:	94 e0       	ldi	r25, 0x04	; 4
    20bc:	0e 94 f1 07 	call	0xfe2	;  0xfe2
    20c0:	6c ce       	rjmp	.-808    	;  0x1d9a
    20c2:	05 97       	sbiw	r24, 0x05	; 5
    20c4:	70 f3       	brcs	.-36     	;  0x20a2
    20c6:	6e e4       	ldi	r22, 0x4E	; 78
    20c8:	72 e0       	ldi	r23, 0x02	; 2
    20ca:	81 ee       	ldi	r24, 0xE1	; 225
    20cc:	93 e0       	ldi	r25, 0x03	; 3
    20ce:	0e 94 f1 07 	call	0xfe2	;  0xfe2
    20d2:	63 ed       	ldi	r22, 0xD3	; 211
    20d4:	71 e0       	ldi	r23, 0x01	; 1
    20d6:	e1 cf       	rjmp	.-62     	;  0x209a
    20d8:	fc 01       	movw	r30, r24
    20da:	88 27       	eor	r24, r24
    20dc:	99 27       	eor	r25, r25
    20de:	e8 94       	clt
    20e0:	21 91       	ld	r18, Z+
    20e2:	20 32       	cpi	r18, 0x20	; 32
    20e4:	e9 f3       	breq	.-6      	;  0x20e0
    20e6:	29 30       	cpi	r18, 0x09	; 9
    20e8:	10 f0       	brcs	.+4      	;  0x20ee
    20ea:	2e 30       	cpi	r18, 0x0E	; 14
    20ec:	c8 f3       	brcs	.-14     	;  0x20e0
    20ee:	2b 32       	cpi	r18, 0x2B	; 43
    20f0:	41 f0       	breq	.+16     	;  0x2102
    20f2:	2d 32       	cpi	r18, 0x2D	; 45
    20f4:	39 f4       	brne	.+14     	;  0x2104
    20f6:	68 94       	set
    20f8:	04 c0       	rjmp	.+8      	;  0x2102
    20fa:	0e 94 9c 10 	call	0x2138	;  0x2138
    20fe:	82 0f       	add	r24, r18
    2100:	91 1d       	adc	r25, r1
    2102:	21 91       	ld	r18, Z+
    2104:	20 53       	subi	r18, 0x30	; 48
    2106:	2a 30       	cpi	r18, 0x0A	; 10
    2108:	c0 f3       	brcs	.-16     	;  0x20fa
    210a:	1e f4       	brtc	.+6      	;  0x2112
    210c:	90 95       	com	r25
    210e:	81 95       	neg	r24
    2110:	9f 4f       	sbci	r25, 0xFF	; 255
    2112:	08 95       	ret
    2114:	fb 01       	movw	r30, r22
    2116:	dc 01       	movw	r26, r24
    2118:	05 90       	lpm	r0, Z+
    211a:	0d 92       	st	X+, r0
    211c:	00 20       	and	r0, r0
    211e:	e1 f7       	brne	.-8      	;  0x2118
    2120:	08 95       	ret
    2122:	bb 27       	eor	r27, r27
    2124:	4a 30       	cpi	r20, 0x0A	; 10
    2126:	31 f4       	brne	.+12     	;  0x2134
    2128:	99 23       	and	r25, r25
    212a:	22 f4       	brpl	.+8      	;  0x2134
    212c:	bd e2       	ldi	r27, 0x2D	; 45
    212e:	90 95       	com	r25
    2130:	81 95       	neg	r24
    2132:	9f 4f       	sbci	r25, 0xFF	; 255
    2134:	0c 94 a5 10 	jmp	0x214a	;  0x214a
    2138:	7a e0       	ldi	r23, 0x0A	; 10
    213a:	97 9f       	mul	r25, r23
    213c:	90 2d       	mov	r25, r0
    213e:	87 9f       	mul	r24, r23
    2140:	80 2d       	mov	r24, r0
    2142:	91 0d       	add	r25, r1
    2144:	11 24       	eor	r1, r1
    2146:	08 95       	ret
    2148:	bb 27       	eor	r27, r27
    214a:	fb 01       	movw	r30, r22
    214c:	55 27       	eor	r21, r21
    214e:	aa 27       	eor	r26, r26
    2150:	88 0f       	add	r24, r24
    2152:	99 1f       	adc	r25, r25
    2154:	aa 1f       	adc	r26, r26
    2156:	a4 17       	cp	r26, r20
    2158:	10 f0       	brcs	.+4      	;  0x215e
    215a:	a4 1b       	sub	r26, r20
    215c:	83 95       	inc	r24
    215e:	50 51       	subi	r21, 0x10	; 16
    2160:	b9 f7       	brne	.-18     	;  0x2150
    2162:	a0 5d       	subi	r26, 0xD0	; 208
    2164:	aa 33       	cpi	r26, 0x3A	; 58
    2166:	08 f0       	brcs	.+2      	;  0x216a
    2168:	a9 5d       	subi	r26, 0xD9	; 217
    216a:	a1 93       	st	Z+, r26
    216c:	00 97       	sbiw	r24, 0x00	; 0
    216e:	79 f7       	brne	.-34     	;  0x214e
    2170:	b1 11       	cpse	r27, r1
    2172:	b1 93       	st	Z+, r27
    2174:	11 92       	st	Z+, r1
    2176:	cb 01       	movw	r24, r22
    2178:	0c 94 0f 13 	jmp	0x261e	;  0x261e
    217c:	0f 93       	push	r16
    217e:	1f 93       	push	r17
    2180:	cf 93       	push	r28
    2182:	df 93       	push	r29
    2184:	cd b7       	in	r28, 0x3d	; 61
    2186:	de b7       	in	r29, 0x3e	; 62
    2188:	2e 97       	sbiw	r28, 0x0e	; 14
    218a:	0f b6       	in	r0, 0x3f	; 63
    218c:	f8 94       	cli
    218e:	de bf       	out	0x3e, r29	; 62
    2190:	0f be       	out	0x3f, r0	; 63
    2192:	cd bf       	out	0x3d, r28	; 61
    2194:	8c 01       	movw	r16, r24
    2196:	fa 01       	movw	r30, r20
    2198:	8e e0       	ldi	r24, 0x0E	; 14
    219a:	8c 83       	std	Y+4, r24	; 0x04
    219c:	1a 83       	std	Y+2, r17	; 0x02
    219e:	09 83       	std	Y+1, r16	; 0x01
    21a0:	77 ff       	sbrs	r23, 7
    21a2:	02 c0       	rjmp	.+4      	;  0x21a8
    21a4:	60 e0       	ldi	r22, 0x00	; 0
    21a6:	70 e8       	ldi	r23, 0x80	; 128
    21a8:	61 50       	subi	r22, 0x01	; 1
    21aa:	71 09       	sbc	r23, r1
    21ac:	7e 83       	std	Y+6, r23	; 0x06
    21ae:	6d 83       	std	Y+5, r22	; 0x05
    21b0:	a9 01       	movw	r20, r18
    21b2:	bf 01       	movw	r22, r30
    21b4:	ce 01       	movw	r24, r28
    21b6:	01 96       	adiw	r24, 0x01	; 1
    21b8:	0e 94 f7 10 	call	0x21ee	;  0x21ee
    21bc:	4d 81       	ldd	r20, Y+5	; 0x05
    21be:	5e 81       	ldd	r21, Y+6	; 0x06
    21c0:	57 fd       	sbrc	r21, 7
    21c2:	0a c0       	rjmp	.+20     	;  0x21d8
    21c4:	2f 81       	ldd	r18, Y+7	; 0x07
    21c6:	38 85       	ldd	r19, Y+8	; 0x08
    21c8:	42 17       	cp	r20, r18
    21ca:	53 07       	cpc	r21, r19
    21cc:	0c f4       	brge	.+2      	;  0x21d0
    21ce:	9a 01       	movw	r18, r20
    21d0:	02 0f       	add	r16, r18
    21d2:	13 1f       	adc	r17, r19
    21d4:	f8 01       	movw	r30, r16
    21d6:	10 82       	st	Z, r1
    21d8:	2e 96       	adiw	r28, 0x0e	; 14
    21da:	0f b6       	in	r0, 0x3f	; 63
    21dc:	f8 94       	cli
    21de:	de bf       	out	0x3e, r29	; 62
    21e0:	0f be       	out	0x3f, r0	; 63
    21e2:	cd bf       	out	0x3d, r28	; 61
    21e4:	df 91       	pop	r29
    21e6:	cf 91       	pop	r28
    21e8:	1f 91       	pop	r17
    21ea:	0f 91       	pop	r16
    21ec:	08 95       	ret
    21ee:	2f 92       	push	r2
    21f0:	3f 92       	push	r3
    21f2:	4f 92       	push	r4
    21f4:	5f 92       	push	r5
    21f6:	6f 92       	push	r6
    21f8:	7f 92       	push	r7
    21fa:	8f 92       	push	r8
    21fc:	9f 92       	push	r9
    21fe:	af 92       	push	r10
    2200:	bf 92       	push	r11
    2202:	cf 92       	push	r12
    2204:	df 92       	push	r13
    2206:	ef 92       	push	r14
    2208:	ff 92       	push	r15
    220a:	0f 93       	push	r16
    220c:	1f 93       	push	r17
    220e:	cf 93       	push	r28
    2210:	df 93       	push	r29
    2212:	00 d0       	rcall	.+0      	;  0x2214
    2214:	00 d0       	rcall	.+0      	;  0x2216
    2216:	00 d0       	rcall	.+0      	;  0x2218
    2218:	1f 92       	push	r1
    221a:	1f 92       	push	r1
    221c:	cd b7       	in	r28, 0x3d	; 61
    221e:	de b7       	in	r29, 0x3e	; 62
    2220:	7c 01       	movw	r14, r24
    2222:	3b 01       	movw	r6, r22
    2224:	8a 01       	movw	r16, r20
    2226:	fc 01       	movw	r30, r24
    2228:	17 82       	std	Z+7, r1	; 0x07
    222a:	16 82       	std	Z+6, r1	; 0x06
    222c:	83 81       	ldd	r24, Z+3	; 0x03
    222e:	81 ff       	sbrs	r24, 1
    2230:	dd c1       	rjmp	.+954    	;  0x25ec
    2232:	ce 01       	movw	r24, r28
    2234:	01 96       	adiw	r24, 0x01	; 1
    2236:	5c 01       	movw	r10, r24
    2238:	f7 01       	movw	r30, r14
    223a:	93 81       	ldd	r25, Z+3	; 0x03
    223c:	f3 01       	movw	r30, r6
    223e:	93 fd       	sbrc	r25, 3
    2240:	85 91       	lpm	r24, Z+
    2242:	93 ff       	sbrs	r25, 3
    2244:	81 91       	ld	r24, Z+
    2246:	3f 01       	movw	r6, r30
    2248:	88 23       	and	r24, r24
    224a:	09 f4       	brne	.+2      	;  0x224e
    224c:	53 c1       	rjmp	.+678    	;  0x24f4
    224e:	85 32       	cpi	r24, 0x25	; 37
    2250:	39 f4       	brne	.+14     	;  0x2260
    2252:	93 fd       	sbrc	r25, 3
    2254:	85 91       	lpm	r24, Z+
    2256:	93 ff       	sbrs	r25, 3
    2258:	81 91       	ld	r24, Z+
    225a:	3f 01       	movw	r6, r30
    225c:	85 32       	cpi	r24, 0x25	; 37
    225e:	29 f4       	brne	.+10     	;  0x226a
    2260:	b7 01       	movw	r22, r14
    2262:	90 e0       	ldi	r25, 0x00	; 0
    2264:	0e 94 1f 13 	call	0x263e	;  0x263e
    2268:	e7 cf       	rjmp	.-50     	;  0x2238
    226a:	91 2c       	mov	r9, r1
    226c:	21 2c       	mov	r2, r1
    226e:	31 2c       	mov	r3, r1
    2270:	ff e1       	ldi	r31, 0x1F	; 31
    2272:	f3 15       	cp	r31, r3
    2274:	38 f0       	brcs	.+14     	;  0x2284
    2276:	8b 32       	cpi	r24, 0x2B	; 43
    2278:	11 f1       	breq	.+68     	;  0x22be
    227a:	90 f4       	brcc	.+36     	;  0x22a0
    227c:	80 32       	cpi	r24, 0x20	; 32
    227e:	09 f1       	breq	.+66     	;  0x22c2
    2280:	83 32       	cpi	r24, 0x23	; 35
    2282:	29 f1       	breq	.+74     	;  0x22ce
    2284:	37 fc       	sbrc	r3, 7
    2286:	3c c0       	rjmp	.+120    	;  0x2300
    2288:	20 ed       	ldi	r18, 0xD0	; 208
    228a:	28 0f       	add	r18, r24
    228c:	2a 30       	cpi	r18, 0x0A	; 10
    228e:	50 f5       	brcc	.+84     	;  0x22e4
    2290:	36 fe       	sbrs	r3, 6
    2292:	20 c0       	rjmp	.+64     	;  0x22d4
    2294:	8a e0       	ldi	r24, 0x0A	; 10
    2296:	98 9e       	mul	r9, r24
    2298:	20 0d       	add	r18, r0
    229a:	11 24       	eor	r1, r1
    229c:	92 2e       	mov	r9, r18
    229e:	06 c0       	rjmp	.+12     	;  0x22ac
    22a0:	8d 32       	cpi	r24, 0x2D	; 45
    22a2:	91 f0       	breq	.+36     	;  0x22c8
    22a4:	80 33       	cpi	r24, 0x30	; 48
    22a6:	71 f7       	brne	.-36     	;  0x2284
    22a8:	68 94       	set
    22aa:	30 f8       	bld	r3, 0
    22ac:	f3 01       	movw	r30, r6
    22ae:	93 fd       	sbrc	r25, 3
    22b0:	85 91       	lpm	r24, Z+
    22b2:	93 ff       	sbrs	r25, 3
    22b4:	81 91       	ld	r24, Z+
    22b6:	3f 01       	movw	r6, r30
    22b8:	81 11       	cpse	r24, r1
    22ba:	da cf       	rjmp	.-76     	;  0x2270
    22bc:	21 c0       	rjmp	.+66     	;  0x2300
    22be:	68 94       	set
    22c0:	31 f8       	bld	r3, 1
    22c2:	68 94       	set
    22c4:	32 f8       	bld	r3, 2
    22c6:	f2 cf       	rjmp	.-28     	;  0x22ac
    22c8:	68 94       	set
    22ca:	33 f8       	bld	r3, 3
    22cc:	ef cf       	rjmp	.-34     	;  0x22ac
    22ce:	68 94       	set
    22d0:	34 f8       	bld	r3, 4
    22d2:	ec cf       	rjmp	.-40     	;  0x22ac
    22d4:	ea e0       	ldi	r30, 0x0A	; 10
    22d6:	2e 9e       	mul	r2, r30
    22d8:	20 0d       	add	r18, r0
    22da:	11 24       	eor	r1, r1
    22dc:	22 2e       	mov	r2, r18
    22de:	68 94       	set
    22e0:	35 f8       	bld	r3, 5
    22e2:	e4 cf       	rjmp	.-56     	;  0x22ac
    22e4:	8e 32       	cpi	r24, 0x2E	; 46
    22e6:	29 f4       	brne	.+10     	;  0x22f2
    22e8:	36 fc       	sbrc	r3, 6
    22ea:	04 c1       	rjmp	.+520    	;  0x24f4
    22ec:	68 94       	set
    22ee:	36 f8       	bld	r3, 6
    22f0:	dd cf       	rjmp	.-70     	;  0x22ac
    22f2:	8c 36       	cpi	r24, 0x6C	; 108
    22f4:	19 f4       	brne	.+6      	;  0x22fc
    22f6:	68 94       	set
    22f8:	37 f8       	bld	r3, 7
    22fa:	d8 cf       	rjmp	.-80     	;  0x22ac
    22fc:	88 36       	cpi	r24, 0x68	; 104
    22fe:	b1 f2       	breq	.-84     	;  0x22ac
    2300:	98 2f       	mov	r25, r24
    2302:	9f 7d       	andi	r25, 0xDF	; 223
    2304:	95 54       	subi	r25, 0x45	; 69
    2306:	93 30       	cpi	r25, 0x03	; 3
    2308:	e0 f0       	brcs	.+56     	;  0x2342
    230a:	83 36       	cpi	r24, 0x63	; 99
    230c:	a1 f1       	breq	.+104    	;  0x2376
    230e:	83 37       	cpi	r24, 0x73	; 115
    2310:	c1 f1       	breq	.+112    	;  0x2382
    2312:	83 35       	cpi	r24, 0x53	; 83
    2314:	09 f0       	breq	.+2      	;  0x2318
    2316:	63 c0       	rjmp	.+198    	;  0x23de
    2318:	28 01       	movw	r4, r16
    231a:	f2 e0       	ldi	r31, 0x02	; 2
    231c:	4f 0e       	add	r4, r31
    231e:	51 1c       	adc	r5, r1
    2320:	f8 01       	movw	r30, r16
    2322:	c0 80       	ld	r12, Z
    2324:	d1 80       	ldd	r13, Z+1	; 0x01
    2326:	69 2d       	mov	r22, r9
    2328:	70 e0       	ldi	r23, 0x00	; 0
    232a:	36 fc       	sbrc	r3, 6
    232c:	02 c0       	rjmp	.+4      	;  0x2332
    232e:	6f ef       	ldi	r22, 0xFF	; 255
    2330:	7f ef       	ldi	r23, 0xFF	; 255
    2332:	c6 01       	movw	r24, r12
    2334:	0e 94 f9 12 	call	0x25f2	;  0x25f2
    2338:	4c 01       	movw	r8, r24
    233a:	68 94       	set
    233c:	37 f8       	bld	r3, 7
    233e:	82 01       	movw	r16, r4
    2340:	0a c0       	rjmp	.+20     	;  0x2356
    2342:	0c 5f       	subi	r16, 0xFC	; 252
    2344:	1f 4f       	sbci	r17, 0xFF	; 255
    2346:	ff e3       	ldi	r31, 0x3F	; 63
    2348:	f9 83       	std	Y+1, r31	; 0x01
    234a:	88 24       	eor	r8, r8
    234c:	83 94       	inc	r8
    234e:	91 2c       	mov	r9, r1
    2350:	65 01       	movw	r12, r10
    2352:	e8 94       	clt
    2354:	37 f8       	bld	r3, 7
    2356:	33 fe       	sbrs	r3, 3
    2358:	2d c0       	rjmp	.+90     	;  0x23b4
    235a:	52 2c       	mov	r5, r2
    235c:	81 14       	cp	r8, r1
    235e:	91 04       	cpc	r9, r1
    2360:	71 f5       	brne	.+92     	;  0x23be
    2362:	55 20       	and	r5, r5
    2364:	09 f4       	brne	.+2      	;  0x2368
    2366:	68 cf       	rjmp	.-304    	;  0x2238
    2368:	b7 01       	movw	r22, r14
    236a:	80 e2       	ldi	r24, 0x20	; 32
    236c:	90 e0       	ldi	r25, 0x00	; 0
    236e:	0e 94 1f 13 	call	0x263e	;  0x263e
    2372:	5a 94       	dec	r5
    2374:	f6 cf       	rjmp	.-20     	;  0x2362
    2376:	f8 01       	movw	r30, r16
    2378:	80 81       	ld	r24, Z
    237a:	89 83       	std	Y+1, r24	; 0x01
    237c:	0e 5f       	subi	r16, 0xFE	; 254
    237e:	1f 4f       	sbci	r17, 0xFF	; 255
    2380:	e4 cf       	rjmp	.-56     	;  0x234a
    2382:	28 01       	movw	r4, r16
    2384:	f2 e0       	ldi	r31, 0x02	; 2
    2386:	4f 0e       	add	r4, r31
    2388:	51 1c       	adc	r5, r1
    238a:	f8 01       	movw	r30, r16
    238c:	c0 80       	ld	r12, Z
    238e:	d1 80       	ldd	r13, Z+1	; 0x01
    2390:	69 2d       	mov	r22, r9
    2392:	70 e0       	ldi	r23, 0x00	; 0
    2394:	36 fc       	sbrc	r3, 6
    2396:	02 c0       	rjmp	.+4      	;  0x239c
    2398:	6f ef       	ldi	r22, 0xFF	; 255
    239a:	7f ef       	ldi	r23, 0xFF	; 255
    239c:	c6 01       	movw	r24, r12
    239e:	0e 94 04 13 	call	0x2608	;  0x2608
    23a2:	4c 01       	movw	r8, r24
    23a4:	82 01       	movw	r16, r4
    23a6:	d5 cf       	rjmp	.-86     	;  0x2352
    23a8:	b7 01       	movw	r22, r14
    23aa:	80 e2       	ldi	r24, 0x20	; 32
    23ac:	90 e0       	ldi	r25, 0x00	; 0
    23ae:	0e 94 1f 13 	call	0x263e	;  0x263e
    23b2:	2a 94       	dec	r2
    23b4:	28 14       	cp	r2, r8
    23b6:	19 04       	cpc	r1, r9
    23b8:	09 f0       	breq	.+2      	;  0x23bc
    23ba:	b0 f7       	brcc	.-20     	;  0x23a8
    23bc:	ce cf       	rjmp	.-100    	;  0x235a
    23be:	f6 01       	movw	r30, r12
    23c0:	37 fc       	sbrc	r3, 7
    23c2:	85 91       	lpm	r24, Z+
    23c4:	37 fe       	sbrs	r3, 7
    23c6:	81 91       	ld	r24, Z+
    23c8:	6f 01       	movw	r12, r30
    23ca:	b7 01       	movw	r22, r14
    23cc:	90 e0       	ldi	r25, 0x00	; 0
    23ce:	0e 94 1f 13 	call	0x263e	;  0x263e
    23d2:	51 10       	cpse	r5, r1
    23d4:	5a 94       	dec	r5
    23d6:	f1 e0       	ldi	r31, 0x01	; 1
    23d8:	8f 1a       	sub	r8, r31
    23da:	91 08       	sbc	r9, r1
    23dc:	bf cf       	rjmp	.-130    	;  0x235c
    23de:	84 36       	cpi	r24, 0x64	; 100
    23e0:	19 f0       	breq	.+6      	;  0x23e8
    23e2:	89 36       	cpi	r24, 0x69	; 105
    23e4:	09 f0       	breq	.+2      	;  0x23e8
    23e6:	77 c0       	rjmp	.+238    	;  0x24d6
    23e8:	f8 01       	movw	r30, r16
    23ea:	37 fe       	sbrs	r3, 7
    23ec:	6b c0       	rjmp	.+214    	;  0x24c4
    23ee:	60 81       	ld	r22, Z
    23f0:	71 81       	ldd	r23, Z+1	; 0x01
    23f2:	82 81       	ldd	r24, Z+2	; 0x02
    23f4:	93 81       	ldd	r25, Z+3	; 0x03
    23f6:	0c 5f       	subi	r16, 0xFC	; 252
    23f8:	1f 4f       	sbci	r17, 0xFF	; 255
    23fa:	f3 2d       	mov	r31, r3
    23fc:	ff 76       	andi	r31, 0x6F	; 111
    23fe:	3f 2e       	mov	r3, r31
    2400:	97 ff       	sbrs	r25, 7
    2402:	09 c0       	rjmp	.+18     	;  0x2416
    2404:	90 95       	com	r25
    2406:	80 95       	com	r24
    2408:	70 95       	com	r23
    240a:	61 95       	neg	r22
    240c:	7f 4f       	sbci	r23, 0xFF	; 255
    240e:	8f 4f       	sbci	r24, 0xFF	; 255
    2410:	9f 4f       	sbci	r25, 0xFF	; 255
    2412:	68 94       	set
    2414:	37 f8       	bld	r3, 7
    2416:	2a e0       	ldi	r18, 0x0A	; 10
    2418:	30 e0       	ldi	r19, 0x00	; 0
    241a:	a5 01       	movw	r20, r10
    241c:	0e 94 4f 13 	call	0x269e	;  0x269e
    2420:	c8 2e       	mov	r12, r24
    2422:	ca 18       	sub	r12, r10
    2424:	8c 2c       	mov	r8, r12
    2426:	43 2c       	mov	r4, r3
    2428:	36 fe       	sbrs	r3, 6
    242a:	0c c0       	rjmp	.+24     	;  0x2444
    242c:	e8 94       	clt
    242e:	40 f8       	bld	r4, 0
    2430:	c9 14       	cp	r12, r9
    2432:	40 f4       	brcc	.+16     	;  0x2444
    2434:	34 fe       	sbrs	r3, 4
    2436:	05 c0       	rjmp	.+10     	;  0x2442
    2438:	32 fc       	sbrc	r3, 2
    243a:	03 c0       	rjmp	.+6      	;  0x2442
    243c:	f3 2d       	mov	r31, r3
    243e:	fe 7e       	andi	r31, 0xEE	; 238
    2440:	4f 2e       	mov	r4, r31
    2442:	89 2c       	mov	r8, r9
    2444:	44 fe       	sbrs	r4, 4
    2446:	aa c0       	rjmp	.+340    	;  0x259c
    2448:	fe 01       	movw	r30, r28
    244a:	ec 0d       	add	r30, r12
    244c:	f1 1d       	adc	r31, r1
    244e:	80 81       	ld	r24, Z
    2450:	80 33       	cpi	r24, 0x30	; 48
    2452:	09 f0       	breq	.+2      	;  0x2456
    2454:	9c c0       	rjmp	.+312    	;  0x258e
    2456:	24 2d       	mov	r18, r4
    2458:	29 7e       	andi	r18, 0xE9	; 233
    245a:	42 2e       	mov	r4, r18
    245c:	84 2d       	mov	r24, r4
    245e:	88 70       	andi	r24, 0x08	; 8
    2460:	58 2e       	mov	r5, r24
    2462:	43 fc       	sbrc	r4, 3
    2464:	aa c0       	rjmp	.+340    	;  0x25ba
    2466:	40 fe       	sbrs	r4, 0
    2468:	a4 c0       	rjmp	.+328    	;  0x25b2
    246a:	9c 2c       	mov	r9, r12
    246c:	82 14       	cp	r8, r2
    246e:	18 f4       	brcc	.+6      	;  0x2476
    2470:	2c 0c       	add	r2, r12
    2472:	92 2c       	mov	r9, r2
    2474:	98 18       	sub	r9, r8
    2476:	44 fe       	sbrs	r4, 4
    2478:	a6 c0       	rjmp	.+332    	;  0x25c6
    247a:	b7 01       	movw	r22, r14
    247c:	80 e3       	ldi	r24, 0x30	; 48
    247e:	90 e0       	ldi	r25, 0x00	; 0
    2480:	0e 94 1f 13 	call	0x263e	;  0x263e
    2484:	42 fe       	sbrs	r4, 2
    2486:	09 c0       	rjmp	.+18     	;  0x249a
    2488:	88 e7       	ldi	r24, 0x78	; 120
    248a:	90 e0       	ldi	r25, 0x00	; 0
    248c:	41 fe       	sbrs	r4, 1
    248e:	02 c0       	rjmp	.+4      	;  0x2494
    2490:	88 e5       	ldi	r24, 0x58	; 88
    2492:	90 e0       	ldi	r25, 0x00	; 0
    2494:	b7 01       	movw	r22, r14
    2496:	0e 94 1f 13 	call	0x263e	;  0x263e
    249a:	c9 14       	cp	r12, r9
    249c:	08 f4       	brcc	.+2      	;  0x24a0
    249e:	9f c0       	rjmp	.+318    	;  0x25de
    24a0:	ca 94       	dec	r12
    24a2:	d1 2c       	mov	r13, r1
    24a4:	9f ef       	ldi	r25, 0xFF	; 255
    24a6:	c9 1a       	sub	r12, r25
    24a8:	d9 0a       	sbc	r13, r25
    24aa:	ca 0c       	add	r12, r10
    24ac:	db 1c       	adc	r13, r11
    24ae:	f6 01       	movw	r30, r12
    24b0:	82 91       	ld	r24, -Z
    24b2:	6f 01       	movw	r12, r30
    24b4:	b7 01       	movw	r22, r14
    24b6:	90 e0       	ldi	r25, 0x00	; 0
    24b8:	0e 94 1f 13 	call	0x263e	;  0x263e
    24bc:	ac 14       	cp	r10, r12
    24be:	bd 04       	cpc	r11, r13
    24c0:	b1 f7       	brne	.-20     	;  0x24ae
    24c2:	4f cf       	rjmp	.-354    	;  0x2362
    24c4:	60 81       	ld	r22, Z
    24c6:	71 81       	ldd	r23, Z+1	; 0x01
    24c8:	07 2e       	mov	r0, r23
    24ca:	00 0c       	add	r0, r0
    24cc:	88 0b       	sbc	r24, r24
    24ce:	99 0b       	sbc	r25, r25
    24d0:	0e 5f       	subi	r16, 0xFE	; 254
    24d2:	1f 4f       	sbci	r17, 0xFF	; 255
    24d4:	92 cf       	rjmp	.-220    	;  0x23fa
    24d6:	d3 2c       	mov	r13, r3
    24d8:	e8 94       	clt
    24da:	d4 f8       	bld	r13, 4
    24dc:	2a e0       	ldi	r18, 0x0A	; 10
    24de:	30 e0       	ldi	r19, 0x00	; 0
    24e0:	85 37       	cpi	r24, 0x75	; 117
    24e2:	e1 f1       	breq	.+120    	;  0x255c
    24e4:	23 2d       	mov	r18, r3
    24e6:	29 7f       	andi	r18, 0xF9	; 249
    24e8:	d2 2e       	mov	r13, r18
    24ea:	8f 36       	cpi	r24, 0x6F	; 111
    24ec:	a9 f1       	breq	.+106    	;  0x2558
    24ee:	f0 f4       	brcc	.+60     	;  0x252c
    24f0:	88 35       	cpi	r24, 0x58	; 88
    24f2:	51 f1       	breq	.+84     	;  0x2548
    24f4:	f7 01       	movw	r30, r14
    24f6:	86 81       	ldd	r24, Z+6	; 0x06
    24f8:	97 81       	ldd	r25, Z+7	; 0x07
    24fa:	2b 96       	adiw	r28, 0x0b	; 11
    24fc:	0f b6       	in	r0, 0x3f	; 63
    24fe:	f8 94       	cli
    2500:	de bf       	out	0x3e, r29	; 62
    2502:	0f be       	out	0x3f, r0	; 63
    2504:	cd bf       	out	0x3d, r28	; 61
    2506:	df 91       	pop	r29
    2508:	cf 91       	pop	r28
    250a:	1f 91       	pop	r17
    250c:	0f 91       	pop	r16
    250e:	ff 90       	pop	r15
    2510:	ef 90       	pop	r14
    2512:	df 90       	pop	r13
    2514:	cf 90       	pop	r12
    2516:	bf 90       	pop	r11
    2518:	af 90       	pop	r10
    251a:	9f 90       	pop	r9
    251c:	8f 90       	pop	r8
    251e:	7f 90       	pop	r7
    2520:	6f 90       	pop	r6
    2522:	5f 90       	pop	r5
    2524:	4f 90       	pop	r4
    2526:	3f 90       	pop	r3
    2528:	2f 90       	pop	r2
    252a:	08 95       	ret
    252c:	80 37       	cpi	r24, 0x70	; 112
    252e:	49 f0       	breq	.+18     	;  0x2542
    2530:	88 37       	cpi	r24, 0x78	; 120
    2532:	01 f7       	brne	.-64     	;  0x24f4
    2534:	d4 fe       	sbrs	r13, 4
    2536:	02 c0       	rjmp	.+4      	;  0x253c
    2538:	68 94       	set
    253a:	d2 f8       	bld	r13, 2
    253c:	20 e1       	ldi	r18, 0x10	; 16
    253e:	30 e0       	ldi	r19, 0x00	; 0
    2540:	0d c0       	rjmp	.+26     	;  0x255c
    2542:	68 94       	set
    2544:	d4 f8       	bld	r13, 4
    2546:	f6 cf       	rjmp	.-20     	;  0x2534
    2548:	34 fe       	sbrs	r3, 4
    254a:	03 c0       	rjmp	.+6      	;  0x2552
    254c:	82 2f       	mov	r24, r18
    254e:	86 60       	ori	r24, 0x06	; 6
    2550:	d8 2e       	mov	r13, r24
    2552:	20 e1       	ldi	r18, 0x10	; 16
    2554:	32 e0       	ldi	r19, 0x02	; 2
    2556:	02 c0       	rjmp	.+4      	;  0x255c
    2558:	28 e0       	ldi	r18, 0x08	; 8
    255a:	30 e0       	ldi	r19, 0x00	; 0
    255c:	f8 01       	movw	r30, r16
    255e:	d7 fe       	sbrs	r13, 7
    2560:	0f c0       	rjmp	.+30     	;  0x2580
    2562:	60 81       	ld	r22, Z
    2564:	71 81       	ldd	r23, Z+1	; 0x01
    2566:	82 81       	ldd	r24, Z+2	; 0x02
    2568:	93 81       	ldd	r25, Z+3	; 0x03
    256a:	0c 5f       	subi	r16, 0xFC	; 252
    256c:	1f 4f       	sbci	r17, 0xFF	; 255
    256e:	a5 01       	movw	r20, r10
    2570:	0e 94 4f 13 	call	0x269e	;  0x269e
    2574:	c8 2e       	mov	r12, r24
    2576:	ca 18       	sub	r12, r10
    2578:	3d 2c       	mov	r3, r13
    257a:	e8 94       	clt
    257c:	37 f8       	bld	r3, 7
    257e:	52 cf       	rjmp	.-348    	;  0x2424
    2580:	60 81       	ld	r22, Z
    2582:	71 81       	ldd	r23, Z+1	; 0x01
    2584:	90 e0       	ldi	r25, 0x00	; 0
    2586:	80 e0       	ldi	r24, 0x00	; 0
    2588:	0e 5f       	subi	r16, 0xFE	; 254
    258a:	1f 4f       	sbci	r17, 0xFF	; 255
    258c:	f0 cf       	rjmp	.-32     	;  0x256e
    258e:	42 fc       	sbrc	r4, 2
    2590:	02 c0       	rjmp	.+4      	;  0x2596
    2592:	83 94       	inc	r8
    2594:	63 cf       	rjmp	.-314    	;  0x245c
    2596:	83 94       	inc	r8
    2598:	83 94       	inc	r8
    259a:	60 cf       	rjmp	.-320    	;  0x245c
    259c:	84 2d       	mov	r24, r4
    259e:	86 78       	andi	r24, 0x86	; 134
    25a0:	09 f4       	brne	.+2      	;  0x25a4
    25a2:	5c cf       	rjmp	.-328    	;  0x245c
    25a4:	f6 cf       	rjmp	.-20     	;  0x2592
    25a6:	b7 01       	movw	r22, r14
    25a8:	80 e2       	ldi	r24, 0x20	; 32
    25aa:	90 e0       	ldi	r25, 0x00	; 0
    25ac:	0e 94 1f 13 	call	0x263e	;  0x263e
    25b0:	83 94       	inc	r8
    25b2:	82 14       	cp	r8, r2
    25b4:	c0 f3       	brcs	.-16     	;  0x25a6
    25b6:	51 2c       	mov	r5, r1
    25b8:	5e cf       	rjmp	.-324    	;  0x2476
    25ba:	52 2c       	mov	r5, r2
    25bc:	58 18       	sub	r5, r8
    25be:	82 14       	cp	r8, r2
    25c0:	08 f4       	brcc	.+2      	;  0x25c4
    25c2:	59 cf       	rjmp	.-334    	;  0x2476
    25c4:	f8 cf       	rjmp	.-16     	;  0x25b6
    25c6:	84 2d       	mov	r24, r4
    25c8:	86 78       	andi	r24, 0x86	; 134
    25ca:	09 f4       	brne	.+2      	;  0x25ce
    25cc:	66 cf       	rjmp	.-308    	;  0x249a
    25ce:	8b e2       	ldi	r24, 0x2B	; 43
    25d0:	41 fe       	sbrs	r4, 1
    25d2:	80 e2       	ldi	r24, 0x20	; 32
    25d4:	47 fc       	sbrc	r4, 7
    25d6:	8d e2       	ldi	r24, 0x2D	; 45
    25d8:	b7 01       	movw	r22, r14
    25da:	90 e0       	ldi	r25, 0x00	; 0
    25dc:	5c cf       	rjmp	.-328    	;  0x2496
    25de:	b7 01       	movw	r22, r14
    25e0:	80 e3       	ldi	r24, 0x30	; 48
    25e2:	90 e0       	ldi	r25, 0x00	; 0
    25e4:	0e 94 1f 13 	call	0x263e	;  0x263e
    25e8:	9a 94       	dec	r9
    25ea:	57 cf       	rjmp	.-338    	;  0x249a
    25ec:	8f ef       	ldi	r24, 0xFF	; 255
    25ee:	9f ef       	ldi	r25, 0xFF	; 255
    25f0:	84 cf       	rjmp	.-248    	;  0x24fa
    25f2:	fc 01       	movw	r30, r24
    25f4:	05 90       	lpm	r0, Z+
    25f6:	61 50       	subi	r22, 0x01	; 1
    25f8:	70 40       	sbci	r23, 0x00	; 0
    25fa:	01 10       	cpse	r0, r1
    25fc:	d8 f7       	brcc	.-10     	;  0x25f4
    25fe:	80 95       	com	r24
    2600:	90 95       	com	r25
    2602:	8e 0f       	add	r24, r30
    2604:	9f 1f       	adc	r25, r31
    2606:	08 95       	ret
    2608:	fc 01       	movw	r30, r24
    260a:	61 50       	subi	r22, 0x01	; 1
    260c:	70 40       	sbci	r23, 0x00	; 0
    260e:	01 90       	ld	r0, Z+
    2610:	01 10       	cpse	r0, r1
    2612:	d8 f7       	brcc	.-10     	;  0x260a
    2614:	80 95       	com	r24
    2616:	90 95       	com	r25
    2618:	8e 0f       	add	r24, r30
    261a:	9f 1f       	adc	r25, r31
    261c:	08 95       	ret
    261e:	dc 01       	movw	r26, r24
    2620:	fc 01       	movw	r30, r24
    2622:	67 2f       	mov	r22, r23
    2624:	71 91       	ld	r23, Z+
    2626:	77 23       	and	r23, r23
    2628:	e1 f7       	brne	.-8      	;  0x2622
    262a:	32 97       	sbiw	r30, 0x02	; 2
    262c:	04 c0       	rjmp	.+8      	;  0x2636
    262e:	7c 91       	ld	r23, X
    2630:	6d 93       	st	X+, r22
    2632:	70 83       	st	Z, r23
    2634:	62 91       	ld	r22, -Z
    2636:	ae 17       	cp	r26, r30
    2638:	bf 07       	cpc	r27, r31
    263a:	c8 f3       	brcs	.-14     	;  0x262e
    263c:	08 95       	ret
    263e:	0f 93       	push	r16
    2640:	1f 93       	push	r17
    2642:	cf 93       	push	r28
    2644:	df 93       	push	r29
    2646:	18 2f       	mov	r17, r24
    2648:	09 2f       	mov	r16, r25
    264a:	eb 01       	movw	r28, r22
    264c:	8b 81       	ldd	r24, Y+3	; 0x03
    264e:	81 fd       	sbrc	r24, 1
    2650:	09 c0       	rjmp	.+18     	;  0x2664
    2652:	1f ef       	ldi	r17, 0xFF	; 255
    2654:	0f ef       	ldi	r16, 0xFF	; 255
    2656:	81 2f       	mov	r24, r17
    2658:	90 2f       	mov	r25, r16
    265a:	df 91       	pop	r29
    265c:	cf 91       	pop	r28
    265e:	1f 91       	pop	r17
    2660:	0f 91       	pop	r16
    2662:	08 95       	ret
    2664:	82 ff       	sbrs	r24, 2
    2666:	14 c0       	rjmp	.+40     	;  0x2690
    2668:	2e 81       	ldd	r18, Y+6	; 0x06
    266a:	3f 81       	ldd	r19, Y+7	; 0x07
    266c:	8c 81       	ldd	r24, Y+4	; 0x04
    266e:	9d 81       	ldd	r25, Y+5	; 0x05
    2670:	28 17       	cp	r18, r24
    2672:	39 07       	cpc	r19, r25
    2674:	3c f4       	brge	.+14     	;  0x2684
    2676:	e8 81       	ld	r30, Y
    2678:	f9 81       	ldd	r31, Y+1	; 0x01
    267a:	cf 01       	movw	r24, r30
    267c:	01 96       	adiw	r24, 0x01	; 1
    267e:	99 83       	std	Y+1, r25	; 0x01
    2680:	88 83       	st	Y, r24
    2682:	10 83       	st	Z, r17
    2684:	8e 81       	ldd	r24, Y+6	; 0x06
    2686:	9f 81       	ldd	r25, Y+7	; 0x07
    2688:	01 96       	adiw	r24, 0x01	; 1
    268a:	9f 83       	std	Y+7, r25	; 0x07
    268c:	8e 83       	std	Y+6, r24	; 0x06
    268e:	e3 cf       	rjmp	.-58     	;  0x2656
    2690:	e8 85       	ldd	r30, Y+8	; 0x08
    2692:	f9 85       	ldd	r31, Y+9	; 0x09
    2694:	81 2f       	mov	r24, r17
    2696:	19 95       	eicall
    2698:	89 2b       	or	r24, r25
    269a:	a1 f3       	breq	.-24     	;  0x2684
    269c:	da cf       	rjmp	.-76     	;  0x2652
    269e:	fa 01       	movw	r30, r20
    26a0:	aa 27       	eor	r26, r26
    26a2:	28 30       	cpi	r18, 0x08	; 8
    26a4:	51 f1       	breq	.+84     	;  0x26fa
    26a6:	20 31       	cpi	r18, 0x10	; 16
    26a8:	81 f1       	breq	.+96     	;  0x270a
    26aa:	e8 94       	clt
    26ac:	6f 93       	push	r22
    26ae:	6e 7f       	andi	r22, 0xFE	; 254
    26b0:	6e 5f       	subi	r22, 0xFE	; 254
    26b2:	7f 4f       	sbci	r23, 0xFF	; 255
    26b4:	8f 4f       	sbci	r24, 0xFF	; 255
    26b6:	9f 4f       	sbci	r25, 0xFF	; 255
    26b8:	af 4f       	sbci	r26, 0xFF	; 255
    26ba:	b1 e0       	ldi	r27, 0x01	; 1
    26bc:	3e d0       	rcall	.+124    	;  0x273a
    26be:	b4 e0       	ldi	r27, 0x04	; 4
    26c0:	3c d0       	rcall	.+120    	;  0x273a
    26c2:	67 0f       	add	r22, r23
    26c4:	78 1f       	adc	r23, r24
    26c6:	89 1f       	adc	r24, r25
    26c8:	9a 1f       	adc	r25, r26
    26ca:	a1 1d       	adc	r26, r1
    26cc:	68 0f       	add	r22, r24
    26ce:	79 1f       	adc	r23, r25
    26d0:	8a 1f       	adc	r24, r26
    26d2:	91 1d       	adc	r25, r1
    26d4:	a1 1d       	adc	r26, r1
    26d6:	6a 0f       	add	r22, r26
    26d8:	71 1d       	adc	r23, r1
    26da:	81 1d       	adc	r24, r1
    26dc:	91 1d       	adc	r25, r1
    26de:	a1 1d       	adc	r26, r1
    26e0:	20 d0       	rcall	.+64     	;  0x2722
    26e2:	09 f4       	brne	.+2      	;  0x26e6
    26e4:	68 94       	set
    26e6:	3f 91       	pop	r19
    26e8:	2a e0       	ldi	r18, 0x0A	; 10
    26ea:	26 9f       	mul	r18, r22
    26ec:	11 24       	eor	r1, r1
    26ee:	30 19       	sub	r19, r0
    26f0:	30 5d       	subi	r19, 0xD0	; 208
    26f2:	31 93       	st	Z+, r19
    26f4:	de f6       	brtc	.-74     	;  0x26ac
    26f6:	cf 01       	movw	r24, r30
    26f8:	08 95       	ret
    26fa:	46 2f       	mov	r20, r22
    26fc:	47 70       	andi	r20, 0x07	; 7
    26fe:	40 5d       	subi	r20, 0xD0	; 208
    2700:	41 93       	st	Z+, r20
    2702:	b3 e0       	ldi	r27, 0x03	; 3
    2704:	0f d0       	rcall	.+30     	;  0x2724
    2706:	c9 f7       	brne	.-14     	;  0x26fa
    2708:	f6 cf       	rjmp	.-20     	;  0x26f6
    270a:	46 2f       	mov	r20, r22
    270c:	4f 70       	andi	r20, 0x0F	; 15
    270e:	40 5d       	subi	r20, 0xD0	; 208
    2710:	4a 33       	cpi	r20, 0x3A	; 58
    2712:	18 f0       	brcs	.+6      	;  0x271a
    2714:	49 5d       	subi	r20, 0xD9	; 217
    2716:	31 fd       	sbrc	r19, 1
    2718:	40 52       	subi	r20, 0x20	; 32
    271a:	41 93       	st	Z+, r20
    271c:	02 d0       	rcall	.+4      	;  0x2722
    271e:	a9 f7       	brne	.-22     	;  0x270a
    2720:	ea cf       	rjmp	.-44     	;  0x26f6
    2722:	b4 e0       	ldi	r27, 0x04	; 4
    2724:	a6 95       	lsr	r26
    2726:	97 95       	ror	r25
    2728:	87 95       	ror	r24
    272a:	77 95       	ror	r23
    272c:	67 95       	ror	r22
    272e:	ba 95       	dec	r27
    2730:	c9 f7       	brne	.-14     	;  0x2724
    2732:	00 97       	sbiw	r24, 0x00	; 0
    2734:	61 05       	cpc	r22, r1
    2736:	71 05       	cpc	r23, r1
    2738:	08 95       	ret
    273a:	9b 01       	movw	r18, r22
    273c:	ac 01       	movw	r20, r24
    273e:	0a 2e       	mov	r0, r26
    2740:	06 94       	lsr	r0
    2742:	57 95       	ror	r21
    2744:	47 95       	ror	r20
    2746:	37 95       	ror	r19
    2748:	27 95       	ror	r18
    274a:	ba 95       	dec	r27
    274c:	c9 f7       	brne	.-14     	;  0x2740
    274e:	62 0f       	add	r22, r18
    2750:	73 1f       	adc	r23, r19
    2752:	84 1f       	adc	r24, r20
    2754:	95 1f       	adc	r25, r21
    2756:	a0 1d       	adc	r26, r0
    2758:	08 95       	ret
    275a:	a1 e2       	ldi	r26, 0x21	; 33
    275c:	1a 2e       	mov	r1, r26
    275e:	aa 1b       	sub	r26, r26
    2760:	bb 1b       	sub	r27, r27
    2762:	fd 01       	movw	r30, r26
    2764:	0d c0       	rjmp	.+26     	;  0x2780
    2766:	aa 1f       	adc	r26, r26
    2768:	bb 1f       	adc	r27, r27
    276a:	ee 1f       	adc	r30, r30
    276c:	ff 1f       	adc	r31, r31
    276e:	a2 17       	cp	r26, r18
    2770:	b3 07       	cpc	r27, r19
    2772:	e4 07       	cpc	r30, r20
    2774:	f5 07       	cpc	r31, r21
    2776:	20 f0       	brcs	.+8      	;  0x2780
    2778:	a2 1b       	sub	r26, r18
    277a:	b3 0b       	sbc	r27, r19
    277c:	e4 0b       	sbc	r30, r20
    277e:	f5 0b       	sbc	r31, r21
    2780:	66 1f       	adc	r22, r22
    2782:	77 1f       	adc	r23, r23
    2784:	88 1f       	adc	r24, r24
    2786:	99 1f       	adc	r25, r25
    2788:	1a 94       	dec	r1
    278a:	69 f7       	brne	.-38     	;  0x2766
    278c:	60 95       	com	r22
    278e:	70 95       	com	r23
    2790:	80 95       	com	r24
    2792:	90 95       	com	r25
    2794:	9b 01       	movw	r18, r22
    2796:	ac 01       	movw	r20, r24
    2798:	bd 01       	movw	r22, r26
    279a:	cf 01       	movw	r24, r30
    279c:	08 95       	ret
    279e:	ee 0f       	add	r30, r30
    27a0:	ff 1f       	adc	r31, r31
    27a2:	88 1f       	adc	r24, r24
    27a4:	8b bf       	out	0x3b, r24	; 59
    27a6:	07 90       	elpm	r0, Z+
    27a8:	f6 91       	elpm	r31, Z
    27aa:	e0 2d       	mov	r30, r0
    27ac:	19 94       	eijmp
    27ae:	0f 93       	push	r16
    27b0:	1f 93       	push	r17
    27b2:	cf 93       	push	r28
    27b4:	df 93       	push	r29
    27b6:	82 30       	cpi	r24, 0x02	; 2
    27b8:	91 05       	cpc	r25, r1
    27ba:	10 f4       	brcc	.+4      	;  0x27c0
    27bc:	82 e0       	ldi	r24, 0x02	; 2
    27be:	90 e0       	ldi	r25, 0x00	; 0
    27c0:	e0 91 c4 04 	lds	r30, 0x04C4	;  0x8004c4
    27c4:	f0 91 c5 04 	lds	r31, 0x04C5	;  0x8004c5
    27c8:	30 e0       	ldi	r19, 0x00	; 0
    27ca:	20 e0       	ldi	r18, 0x00	; 0
    27cc:	b0 e0       	ldi	r27, 0x00	; 0
    27ce:	a0 e0       	ldi	r26, 0x00	; 0
    27d0:	30 97       	sbiw	r30, 0x00	; 0
    27d2:	99 f4       	brne	.+38     	;  0x27fa
    27d4:	21 15       	cp	r18, r1
    27d6:	31 05       	cpc	r19, r1
    27d8:	09 f4       	brne	.+2      	;  0x27dc
    27da:	4a c0       	rjmp	.+148    	;  0x2870
    27dc:	28 1b       	sub	r18, r24
    27de:	39 0b       	sbc	r19, r25
    27e0:	24 30       	cpi	r18, 0x04	; 4
    27e2:	31 05       	cpc	r19, r1
    27e4:	d8 f5       	brcc	.+118    	;  0x285c
    27e6:	8a 81       	ldd	r24, Y+2	; 0x02
    27e8:	9b 81       	ldd	r25, Y+3	; 0x03
    27ea:	61 15       	cp	r22, r1
    27ec:	71 05       	cpc	r23, r1
    27ee:	89 f1       	breq	.+98     	;  0x2852
    27f0:	fb 01       	movw	r30, r22
    27f2:	93 83       	std	Z+3, r25	; 0x03
    27f4:	82 83       	std	Z+2, r24	; 0x02
    27f6:	fe 01       	movw	r30, r28
    27f8:	11 c0       	rjmp	.+34     	;  0x281c
    27fa:	40 81       	ld	r20, Z
    27fc:	51 81       	ldd	r21, Z+1	; 0x01
    27fe:	02 81       	ldd	r16, Z+2	; 0x02
    2800:	13 81       	ldd	r17, Z+3	; 0x03
    2802:	48 17       	cp	r20, r24
    2804:	59 07       	cpc	r21, r25
    2806:	e0 f0       	brcs	.+56     	;  0x2840
    2808:	48 17       	cp	r20, r24
    280a:	59 07       	cpc	r21, r25
    280c:	99 f4       	brne	.+38     	;  0x2834
    280e:	10 97       	sbiw	r26, 0x00	; 0
    2810:	61 f0       	breq	.+24     	;  0x282a
    2812:	12 96       	adiw	r26, 0x02	; 2
    2814:	0c 93       	st	X, r16
    2816:	12 97       	sbiw	r26, 0x02	; 2
    2818:	13 96       	adiw	r26, 0x03	; 3
    281a:	1c 93       	st	X, r17
    281c:	32 96       	adiw	r30, 0x02	; 2
    281e:	cf 01       	movw	r24, r30
    2820:	df 91       	pop	r29
    2822:	cf 91       	pop	r28
    2824:	1f 91       	pop	r17
    2826:	0f 91       	pop	r16
    2828:	08 95       	ret
    282a:	00 93 c4 04 	sts	0x04C4, r16	;  0x8004c4
    282e:	10 93 c5 04 	sts	0x04C5, r17	;  0x8004c5
    2832:	f4 cf       	rjmp	.-24     	;  0x281c
    2834:	21 15       	cp	r18, r1
    2836:	31 05       	cpc	r19, r1
    2838:	51 f0       	breq	.+20     	;  0x284e
    283a:	42 17       	cp	r20, r18
    283c:	53 07       	cpc	r21, r19
    283e:	38 f0       	brcs	.+14     	;  0x284e
    2840:	a9 01       	movw	r20, r18
    2842:	db 01       	movw	r26, r22
    2844:	9a 01       	movw	r18, r20
    2846:	bd 01       	movw	r22, r26
    2848:	df 01       	movw	r26, r30
    284a:	f8 01       	movw	r30, r16
    284c:	c1 cf       	rjmp	.-126    	;  0x27d0
    284e:	ef 01       	movw	r28, r30
    2850:	f9 cf       	rjmp	.-14     	;  0x2844
    2852:	90 93 c5 04 	sts	0x04C5, r25	;  0x8004c5
    2856:	80 93 c4 04 	sts	0x04C4, r24	;  0x8004c4
    285a:	cd cf       	rjmp	.-102    	;  0x27f6
    285c:	fe 01       	movw	r30, r28
    285e:	e2 0f       	add	r30, r18
    2860:	f3 1f       	adc	r31, r19
    2862:	81 93       	st	Z+, r24
    2864:	91 93       	st	Z+, r25
    2866:	22 50       	subi	r18, 0x02	; 2
    2868:	31 09       	sbc	r19, r1
    286a:	39 83       	std	Y+1, r19	; 0x01
    286c:	28 83       	st	Y, r18
    286e:	d7 cf       	rjmp	.-82     	;  0x281e
    2870:	20 91 c2 04 	lds	r18, 0x04C2	;  0x8004c2
    2874:	30 91 c3 04 	lds	r19, 0x04C3	;  0x8004c3
    2878:	23 2b       	or	r18, r19
    287a:	41 f4       	brne	.+16     	;  0x288c
    287c:	20 91 02 02 	lds	r18, 0x0202	;  0x800202
    2880:	30 91 03 02 	lds	r19, 0x0203	;  0x800203
    2884:	30 93 c3 04 	sts	0x04C3, r19	;  0x8004c3
    2888:	20 93 c2 04 	sts	0x04C2, r18	;  0x8004c2
    288c:	20 91 00 02 	lds	r18, 0x0200	;  0x800200
    2890:	30 91 01 02 	lds	r19, 0x0201	;  0x800201
    2894:	21 15       	cp	r18, r1
    2896:	31 05       	cpc	r19, r1
    2898:	41 f4       	brne	.+16     	;  0x28aa
    289a:	2d b7       	in	r18, 0x3d	; 61
    289c:	3e b7       	in	r19, 0x3e	; 62
    289e:	40 91 04 02 	lds	r20, 0x0204	;  0x800204
    28a2:	50 91 05 02 	lds	r21, 0x0205	;  0x800205
    28a6:	24 1b       	sub	r18, r20
    28a8:	35 0b       	sbc	r19, r21
    28aa:	e0 91 c2 04 	lds	r30, 0x04C2	;  0x8004c2
    28ae:	f0 91 c3 04 	lds	r31, 0x04C3	;  0x8004c3
    28b2:	e2 17       	cp	r30, r18
    28b4:	f3 07       	cpc	r31, r19
    28b6:	a0 f4       	brcc	.+40     	;  0x28e0
    28b8:	2e 1b       	sub	r18, r30
    28ba:	3f 0b       	sbc	r19, r31
    28bc:	28 17       	cp	r18, r24
    28be:	39 07       	cpc	r19, r25
    28c0:	78 f0       	brcs	.+30     	;  0x28e0
    28c2:	ac 01       	movw	r20, r24
    28c4:	4e 5f       	subi	r20, 0xFE	; 254
    28c6:	5f 4f       	sbci	r21, 0xFF	; 255
    28c8:	24 17       	cp	r18, r20
    28ca:	35 07       	cpc	r19, r21
    28cc:	48 f0       	brcs	.+18     	;  0x28e0
    28ce:	4e 0f       	add	r20, r30
    28d0:	5f 1f       	adc	r21, r31
    28d2:	50 93 c3 04 	sts	0x04C3, r21	;  0x8004c3
    28d6:	40 93 c2 04 	sts	0x04C2, r20	;  0x8004c2
    28da:	81 93       	st	Z+, r24
    28dc:	91 93       	st	Z+, r25
    28de:	9f cf       	rjmp	.-194    	;  0x281e
    28e0:	f0 e0       	ldi	r31, 0x00	; 0
    28e2:	e0 e0       	ldi	r30, 0x00	; 0
    28e4:	9c cf       	rjmp	.-200    	;  0x281e
    28e6:	cf 93       	push	r28
    28e8:	df 93       	push	r29
    28ea:	00 97       	sbiw	r24, 0x00	; 0
    28ec:	e9 f0       	breq	.+58     	;  0x2928
    28ee:	fc 01       	movw	r30, r24
    28f0:	32 97       	sbiw	r30, 0x02	; 2
    28f2:	13 82       	std	Z+3, r1	; 0x03
    28f4:	12 82       	std	Z+2, r1	; 0x02
    28f6:	a0 91 c4 04 	lds	r26, 0x04C4	;  0x8004c4
    28fa:	b0 91 c5 04 	lds	r27, 0x04C5	;  0x8004c5
    28fe:	ed 01       	movw	r28, r26
    2900:	30 e0       	ldi	r19, 0x00	; 0
    2902:	20 e0       	ldi	r18, 0x00	; 0
    2904:	10 97       	sbiw	r26, 0x00	; 0
    2906:	a1 f4       	brne	.+40     	;  0x2930
    2908:	20 81       	ld	r18, Z
    290a:	31 81       	ldd	r19, Z+1	; 0x01
    290c:	82 0f       	add	r24, r18
    290e:	93 1f       	adc	r25, r19
    2910:	20 91 c2 04 	lds	r18, 0x04C2	;  0x8004c2
    2914:	30 91 c3 04 	lds	r19, 0x04C3	;  0x8004c3
    2918:	28 17       	cp	r18, r24
    291a:	39 07       	cpc	r19, r25
    291c:	09 f0       	breq	.+2      	;  0x2920
    291e:	61 c0       	rjmp	.+194    	;  0x29e2
    2920:	f0 93 c3 04 	sts	0x04C3, r31	;  0x8004c3
    2924:	e0 93 c2 04 	sts	0x04C2, r30	;  0x8004c2
    2928:	df 91       	pop	r29
    292a:	cf 91       	pop	r28
    292c:	08 95       	ret
    292e:	ea 01       	movw	r28, r20
    2930:	ce 17       	cp	r28, r30
    2932:	df 07       	cpc	r29, r31
    2934:	e8 f5       	brcc	.+122    	;  0x29b0
    2936:	4a 81       	ldd	r20, Y+2	; 0x02
    2938:	5b 81       	ldd	r21, Y+3	; 0x03
    293a:	9e 01       	movw	r18, r28
    293c:	41 15       	cp	r20, r1
    293e:	51 05       	cpc	r21, r1
    2940:	b1 f7       	brne	.-20     	;  0x292e
    2942:	e9 01       	movw	r28, r18
    2944:	fb 83       	std	Y+3, r31	; 0x03
    2946:	ea 83       	std	Y+2, r30	; 0x02
    2948:	49 91       	ld	r20, Y+
    294a:	59 91       	ld	r21, Y+
    294c:	c4 0f       	add	r28, r20
    294e:	d5 1f       	adc	r29, r21
    2950:	ec 17       	cp	r30, r28
    2952:	fd 07       	cpc	r31, r29
    2954:	61 f4       	brne	.+24     	;  0x296e
    2956:	80 81       	ld	r24, Z
    2958:	91 81       	ldd	r25, Z+1	; 0x01
    295a:	02 96       	adiw	r24, 0x02	; 2
    295c:	84 0f       	add	r24, r20
    295e:	95 1f       	adc	r25, r21
    2960:	e9 01       	movw	r28, r18
    2962:	99 83       	std	Y+1, r25	; 0x01
    2964:	88 83       	st	Y, r24
    2966:	82 81       	ldd	r24, Z+2	; 0x02
    2968:	93 81       	ldd	r25, Z+3	; 0x03
    296a:	9b 83       	std	Y+3, r25	; 0x03
    296c:	8a 83       	std	Y+2, r24	; 0x02
    296e:	f0 e0       	ldi	r31, 0x00	; 0
    2970:	e0 e0       	ldi	r30, 0x00	; 0
    2972:	12 96       	adiw	r26, 0x02	; 2
    2974:	8d 91       	ld	r24, X+
    2976:	9c 91       	ld	r25, X
    2978:	13 97       	sbiw	r26, 0x03	; 3
    297a:	00 97       	sbiw	r24, 0x00	; 0
    297c:	b9 f5       	brne	.+110    	;  0x29ec
    297e:	2d 91       	ld	r18, X+
    2980:	3c 91       	ld	r19, X
    2982:	11 97       	sbiw	r26, 0x01	; 1
    2984:	cd 01       	movw	r24, r26
    2986:	02 96       	adiw	r24, 0x02	; 2
    2988:	82 0f       	add	r24, r18
    298a:	93 1f       	adc	r25, r19
    298c:	20 91 c2 04 	lds	r18, 0x04C2	;  0x8004c2
    2990:	30 91 c3 04 	lds	r19, 0x04C3	;  0x8004c3
    2994:	28 17       	cp	r18, r24
    2996:	39 07       	cpc	r19, r25
    2998:	39 f6       	brne	.-114    	;  0x2928
    299a:	30 97       	sbiw	r30, 0x00	; 0
    299c:	51 f5       	brne	.+84     	;  0x29f2
    299e:	10 92 c5 04 	sts	0x04C5, r1	;  0x8004c5
    29a2:	10 92 c4 04 	sts	0x04C4, r1	;  0x8004c4
    29a6:	b0 93 c3 04 	sts	0x04C3, r27	;  0x8004c3
    29aa:	a0 93 c2 04 	sts	0x04C2, r26	;  0x8004c2
    29ae:	bc cf       	rjmp	.-136    	;  0x2928
    29b0:	d3 83       	std	Z+3, r29	; 0x03
    29b2:	c2 83       	std	Z+2, r28	; 0x02
    29b4:	40 81       	ld	r20, Z
    29b6:	51 81       	ldd	r21, Z+1	; 0x01
    29b8:	84 0f       	add	r24, r20
    29ba:	95 1f       	adc	r25, r21
    29bc:	c8 17       	cp	r28, r24
    29be:	d9 07       	cpc	r29, r25
    29c0:	61 f4       	brne	.+24     	;  0x29da
    29c2:	4e 5f       	subi	r20, 0xFE	; 254
    29c4:	5f 4f       	sbci	r21, 0xFF	; 255
    29c6:	88 81       	ld	r24, Y
    29c8:	99 81       	ldd	r25, Y+1	; 0x01
    29ca:	48 0f       	add	r20, r24
    29cc:	59 1f       	adc	r21, r25
    29ce:	51 83       	std	Z+1, r21	; 0x01
    29d0:	40 83       	st	Z, r20
    29d2:	8a 81       	ldd	r24, Y+2	; 0x02
    29d4:	9b 81       	ldd	r25, Y+3	; 0x03
    29d6:	93 83       	std	Z+3, r25	; 0x03
    29d8:	82 83       	std	Z+2, r24	; 0x02
    29da:	21 15       	cp	r18, r1
    29dc:	31 05       	cpc	r19, r1
    29de:	09 f0       	breq	.+2      	;  0x29e2
    29e0:	b0 cf       	rjmp	.-160    	;  0x2942
    29e2:	f0 93 c5 04 	sts	0x04C5, r31	;  0x8004c5
    29e6:	e0 93 c4 04 	sts	0x04C4, r30	;  0x8004c4
    29ea:	9e cf       	rjmp	.-196    	;  0x2928
    29ec:	fd 01       	movw	r30, r26
    29ee:	dc 01       	movw	r26, r24
    29f0:	c0 cf       	rjmp	.-128    	;  0x2972
    29f2:	13 82       	std	Z+3, r1	; 0x03
    29f4:	12 82       	std	Z+2, r1	; 0x02
    29f6:	d7 cf       	rjmp	.-82     	;  0x29a6
    29f8:	4f 92       	push	r4
    29fa:	5f 92       	push	r5
    29fc:	6f 92       	push	r6
    29fe:	7f 92       	push	r7
    2a00:	8f 92       	push	r8
    2a02:	9f 92       	push	r9
    2a04:	af 92       	push	r10
    2a06:	bf 92       	push	r11
    2a08:	cf 92       	push	r12
    2a0a:	df 92       	push	r13
    2a0c:	ef 92       	push	r14
    2a0e:	ff 92       	push	r15
    2a10:	0f 93       	push	r16
    2a12:	1f 93       	push	r17
    2a14:	cf 93       	push	r28
    2a16:	df 93       	push	r29
    2a18:	8c 01       	movw	r16, r24
    2a1a:	00 97       	sbiw	r24, 0x00	; 0
    2a1c:	99 f4       	brne	.+38     	;  0x2a44
    2a1e:	cb 01       	movw	r24, r22
    2a20:	df 91       	pop	r29
    2a22:	cf 91       	pop	r28
    2a24:	1f 91       	pop	r17
    2a26:	0f 91       	pop	r16
    2a28:	ff 90       	pop	r15
    2a2a:	ef 90       	pop	r14
    2a2c:	df 90       	pop	r13
    2a2e:	cf 90       	pop	r12
    2a30:	bf 90       	pop	r11
    2a32:	af 90       	pop	r10
    2a34:	9f 90       	pop	r9
    2a36:	8f 90       	pop	r8
    2a38:	7f 90       	pop	r7
    2a3a:	6f 90       	pop	r6
    2a3c:	5f 90       	pop	r5
    2a3e:	4f 90       	pop	r4
    2a40:	0c 94 d7 13 	jmp	0x27ae	;  0x27ae
    2a44:	fc 01       	movw	r30, r24
    2a46:	e6 0f       	add	r30, r22
    2a48:	f7 1f       	adc	r31, r23
    2a4a:	9c 01       	movw	r18, r24
    2a4c:	22 50       	subi	r18, 0x02	; 2
    2a4e:	31 09       	sbc	r19, r1
    2a50:	e2 17       	cp	r30, r18
    2a52:	f3 07       	cpc	r31, r19
    2a54:	08 f4       	brcc	.+2      	;  0x2a58
    2a56:	ae c0       	rjmp	.+348    	;  0x2bb4
    2a58:	d9 01       	movw	r26, r18
    2a5a:	cd 91       	ld	r28, X+
    2a5c:	dc 91       	ld	r29, X
    2a5e:	11 97       	sbiw	r26, 0x01	; 1
    2a60:	c6 17       	cp	r28, r22
    2a62:	d7 07       	cpc	r29, r23
    2a64:	20 f1       	brcs	.+72     	;  0x2aae
    2a66:	c5 30       	cpi	r28, 0x05	; 5
    2a68:	d1 05       	cpc	r29, r1
    2a6a:	78 f0       	brcs	.+30     	;  0x2a8a
    2a6c:	ce 01       	movw	r24, r28
    2a6e:	04 97       	sbiw	r24, 0x04	; 4
    2a70:	86 17       	cp	r24, r22
    2a72:	97 07       	cpc	r25, r23
    2a74:	50 f0       	brcs	.+20     	;  0x2a8a
    2a76:	c6 1b       	sub	r28, r22
    2a78:	d7 0b       	sbc	r29, r23
    2a7a:	22 97       	sbiw	r28, 0x02	; 2
    2a7c:	c1 93       	st	Z+, r28
    2a7e:	d1 93       	st	Z+, r29
    2a80:	6d 93       	st	X+, r22
    2a82:	7c 93       	st	X, r23
    2a84:	cf 01       	movw	r24, r30
    2a86:	0e 94 73 14 	call	0x28e6	;  0x28e6
    2a8a:	c8 01       	movw	r24, r16
    2a8c:	df 91       	pop	r29
    2a8e:	cf 91       	pop	r28
    2a90:	1f 91       	pop	r17
    2a92:	0f 91       	pop	r16
    2a94:	ff 90       	pop	r15
    2a96:	ef 90       	pop	r14
    2a98:	df 90       	pop	r13
    2a9a:	cf 90       	pop	r12
    2a9c:	bf 90       	pop	r11
    2a9e:	af 90       	pop	r10
    2aa0:	9f 90       	pop	r9
    2aa2:	8f 90       	pop	r8
    2aa4:	7f 90       	pop	r7
    2aa6:	6f 90       	pop	r6
    2aa8:	5f 90       	pop	r5
    2aaa:	4f 90       	pop	r4
    2aac:	08 95       	ret
    2aae:	5b 01       	movw	r10, r22
    2ab0:	ac 1a       	sub	r10, r28
    2ab2:	bd 0a       	sbc	r11, r29
    2ab4:	4c 01       	movw	r8, r24
    2ab6:	8c 0e       	add	r8, r28
    2ab8:	9d 1e       	adc	r9, r29
    2aba:	a0 91 c4 04 	lds	r26, 0x04C4	;  0x8004c4
    2abe:	b0 91 c5 04 	lds	r27, 0x04C5	;  0x8004c5
    2ac2:	51 2c       	mov	r5, r1
    2ac4:	41 2c       	mov	r4, r1
    2ac6:	f1 2c       	mov	r15, r1
    2ac8:	e1 2c       	mov	r14, r1
    2aca:	10 97       	sbiw	r26, 0x00	; 0
    2acc:	31 f5       	brne	.+76     	;  0x2b1a
    2ace:	80 91 c2 04 	lds	r24, 0x04C2	;  0x8004c2
    2ad2:	90 91 c3 04 	lds	r25, 0x04C3	;  0x8004c3
    2ad6:	88 15       	cp	r24, r8
    2ad8:	99 05       	cpc	r25, r9
    2ada:	09 f0       	breq	.+2      	;  0x2ade
    2adc:	5c c0       	rjmp	.+184    	;  0x2b96
    2ade:	46 16       	cp	r4, r22
    2ae0:	57 06       	cpc	r5, r23
    2ae2:	08 f0       	brcs	.+2      	;  0x2ae6
    2ae4:	58 c0       	rjmp	.+176    	;  0x2b96
    2ae6:	80 91 00 02 	lds	r24, 0x0200	;  0x800200
    2aea:	90 91 01 02 	lds	r25, 0x0201	;  0x800201
    2aee:	00 97       	sbiw	r24, 0x00	; 0
    2af0:	41 f4       	brne	.+16     	;  0x2b02
    2af2:	8d b7       	in	r24, 0x3d	; 61
    2af4:	9e b7       	in	r25, 0x3e	; 62
    2af6:	40 91 04 02 	lds	r20, 0x0204	;  0x800204
    2afa:	50 91 05 02 	lds	r21, 0x0205	;  0x800205
    2afe:	84 1b       	sub	r24, r20
    2b00:	95 0b       	sbc	r25, r21
    2b02:	e8 17       	cp	r30, r24
    2b04:	f9 07       	cpc	r31, r25
    2b06:	08 f0       	brcs	.+2      	;  0x2b0a
    2b08:	55 c0       	rjmp	.+170    	;  0x2bb4
    2b0a:	f0 93 c3 04 	sts	0x04C3, r31	;  0x8004c3
    2b0e:	e0 93 c2 04 	sts	0x04C2, r30	;  0x8004c2
    2b12:	f9 01       	movw	r30, r18
    2b14:	71 83       	std	Z+1, r23	; 0x01
    2b16:	60 83       	st	Z, r22
    2b18:	b8 cf       	rjmp	.-144    	;  0x2a8a
    2b1a:	8d 91       	ld	r24, X+
    2b1c:	9c 91       	ld	r25, X
    2b1e:	11 97       	sbiw	r26, 0x01	; 1
    2b20:	12 96       	adiw	r26, 0x02	; 2
    2b22:	6c 90       	ld	r6, X
    2b24:	12 97       	sbiw	r26, 0x02	; 2
    2b26:	13 96       	adiw	r26, 0x03	; 3
    2b28:	7c 90       	ld	r7, X
    2b2a:	13 97       	sbiw	r26, 0x03	; 3
    2b2c:	a8 15       	cp	r26, r8
    2b2e:	b9 05       	cpc	r27, r9
    2b30:	59 f5       	brne	.+86     	;  0x2b88
    2b32:	6c 01       	movw	r12, r24
    2b34:	42 e0       	ldi	r20, 0x02	; 2
    2b36:	c4 0e       	add	r12, r20
    2b38:	d1 1c       	adc	r13, r1
    2b3a:	ca 14       	cp	r12, r10
    2b3c:	db 04       	cpc	r13, r11
    2b3e:	20 f1       	brcs	.+72     	;  0x2b88
    2b40:	ac 01       	movw	r20, r24
    2b42:	4a 19       	sub	r20, r10
    2b44:	5b 09       	sbc	r21, r11
    2b46:	da 01       	movw	r26, r20
    2b48:	12 96       	adiw	r26, 0x02	; 2
    2b4a:	15 97       	sbiw	r26, 0x05	; 5
    2b4c:	80 f0       	brcs	.+32     	;  0x2b6e
    2b4e:	62 82       	std	Z+2, r6	; 0x02
    2b50:	73 82       	std	Z+3, r7	; 0x03
    2b52:	51 83       	std	Z+1, r21	; 0x01
    2b54:	40 83       	st	Z, r20
    2b56:	d9 01       	movw	r26, r18
    2b58:	6d 93       	st	X+, r22
    2b5a:	7c 93       	st	X, r23
    2b5c:	e1 14       	cp	r14, r1
    2b5e:	f1 04       	cpc	r15, r1
    2b60:	71 f0       	breq	.+28     	;  0x2b7e
    2b62:	d7 01       	movw	r26, r14
    2b64:	13 96       	adiw	r26, 0x03	; 3
    2b66:	fc 93       	st	X, r31
    2b68:	ee 93       	st	-X, r30
    2b6a:	12 97       	sbiw	r26, 0x02	; 2
    2b6c:	8e cf       	rjmp	.-228    	;  0x2a8a
    2b6e:	22 96       	adiw	r28, 0x02	; 2
    2b70:	8c 0f       	add	r24, r28
    2b72:	9d 1f       	adc	r25, r29
    2b74:	f9 01       	movw	r30, r18
    2b76:	91 83       	std	Z+1, r25	; 0x01
    2b78:	80 83       	st	Z, r24
    2b7a:	f3 01       	movw	r30, r6
    2b7c:	ef cf       	rjmp	.-34     	;  0x2b5c
    2b7e:	f0 93 c5 04 	sts	0x04C5, r31	;  0x8004c5
    2b82:	e0 93 c4 04 	sts	0x04C4, r30	;  0x8004c4
    2b86:	81 cf       	rjmp	.-254    	;  0x2a8a
    2b88:	48 16       	cp	r4, r24
    2b8a:	59 06       	cpc	r5, r25
    2b8c:	08 f4       	brcc	.+2      	;  0x2b90
    2b8e:	2c 01       	movw	r4, r24
    2b90:	7d 01       	movw	r14, r26
    2b92:	d3 01       	movw	r26, r6
    2b94:	9a cf       	rjmp	.-204    	;  0x2aca
    2b96:	cb 01       	movw	r24, r22
    2b98:	0e 94 d7 13 	call	0x27ae	;  0x27ae
    2b9c:	7c 01       	movw	r14, r24
    2b9e:	00 97       	sbiw	r24, 0x00	; 0
    2ba0:	49 f0       	breq	.+18     	;  0x2bb4
    2ba2:	ae 01       	movw	r20, r28
    2ba4:	b8 01       	movw	r22, r16
    2ba6:	0e 94 dd 15 	call	0x2bba	;  0x2bba
    2baa:	c8 01       	movw	r24, r16
    2bac:	0e 94 73 14 	call	0x28e6	;  0x28e6
    2bb0:	87 01       	movw	r16, r14
    2bb2:	6b cf       	rjmp	.-298    	;  0x2a8a
    2bb4:	10 e0       	ldi	r17, 0x00	; 0
    2bb6:	00 e0       	ldi	r16, 0x00	; 0
    2bb8:	68 cf       	rjmp	.-304    	;  0x2a8a
    2bba:	fb 01       	movw	r30, r22
    2bbc:	dc 01       	movw	r26, r24
    2bbe:	02 c0       	rjmp	.+4      	;  0x2bc4
    2bc0:	01 90       	ld	r0, Z+
    2bc2:	0d 92       	st	X+, r0
    2bc4:	41 50       	subi	r20, 0x01	; 1
    2bc6:	50 40       	sbci	r21, 0x00	; 0
    2bc8:	d8 f7       	brcc	.-10     	;  0x2bc0
    2bca:	08 95       	ret
    2bcc:	dc 01       	movw	r26, r24
    2bce:	01 c0       	rjmp	.+2      	;  0x2bd2
    2bd0:	6d 93       	st	X+, r22
    2bd2:	41 50       	subi	r20, 0x01	; 1
    2bd4:	50 40       	sbci	r21, 0x00	; 0
    2bd6:	e0 f7       	brcc	.-8      	;  0x2bd0
    2bd8:	08 95       	ret
    2bda:	fb 01       	movw	r30, r22
    2bdc:	dc 01       	movw	r26, r24
    2bde:	8d 91       	ld	r24, X+
    2be0:	01 90       	ld	r0, Z+
    2be2:	80 19       	sub	r24, r0
    2be4:	01 10       	cpse	r0, r1
    2be6:	d9 f3       	breq	.-10     	;  0x2bde
    2be8:	99 0b       	sbc	r25, r25
    2bea:	08 95       	ret
    2bec:	fb 01       	movw	r30, r22
    2bee:	dc 01       	movw	r26, r24
    2bf0:	01 90       	ld	r0, Z+
    2bf2:	0d 92       	st	X+, r0
    2bf4:	00 20       	and	r0, r0
    2bf6:	e1 f7       	brne	.-8      	;  0x2bf0
    2bf8:	08 95       	ret
    2bfa:	fb 01       	movw	r30, r22
    2bfc:	dc 01       	movw	r26, r24
    2bfe:	41 50       	subi	r20, 0x01	; 1
    2c00:	50 40       	sbci	r21, 0x00	; 0
    2c02:	48 f0       	brcs	.+18     	;  0x2c16
    2c04:	01 90       	ld	r0, Z+
    2c06:	0d 92       	st	X+, r0
    2c08:	00 20       	and	r0, r0
    2c0a:	c9 f7       	brne	.-14     	;  0x2bfe
    2c0c:	01 c0       	rjmp	.+2      	;  0x2c10
    2c0e:	1d 92       	st	X+, r1
    2c10:	41 50       	subi	r20, 0x01	; 1
    2c12:	50 40       	sbci	r21, 0x00	; 0
    2c14:	e0 f7       	brcc	.-8      	;  0x2c0e
    2c16:	08 95       	ret
    2c18:	f8 94       	cli
    2c1a:	ff cf       	rjmp	.-2      	;  0x2c1a
    2c1c:	00 00       	nop
    2c1e:	c6 04       	cpc	r12, r6
    2c20:	80 00       	.word	0x0080	; ????
    2c22:	00 00       	nop
    2c24:	40 00       	.word	0x0040	; ????
    2c26:	14 00       	.word	0x0014	; ????
    2c28:	54 00       	.word	0x0054	; ????
    2c2a:	e3 02       	muls	r30, r19
    2c2c:	ea 02       	muls	r30, r26
    2c2e:	f4 02       	muls	r31, r20
    2c30:	fd 02       	muls	r31, r29
    2c32:	09 03       	fmul	r16, r17
    2c34:	00 00       	nop
    2c36:	00 00       	nop
    2c38:	38 02       	muls	r19, r24
    2c3a:	58 04       	cpc	r5, r8
    2c3c:	d9 01       	movw	r26, r18
    2c3e:	85 02       	muls	r24, r21
    2c40:	0a 02       	muls	r16, r26
    2c42:	e8 01       	movw	r28, r16
    2c44:	fc 01       	movw	r30, r24
    2c46:	00 00       	nop
    2c48:	00 00       	nop
    2c4a:	42 05       	cpc	r20, r2
    2c4c:	15 05       	cpc	r17, r5
    2c4e:	59 06       	cpc	r5, r25
    2c50:	eb 04       	cpc	r14, r11
    2c52:	0e 05       	cpc	r16, r14
    2c54:	fb 04       	cpc	r15, r11
    2c56:	ec 04       	cpc	r14, r12
    2c58:	00 00       	nop
    2c5a:	00 00       	nop
    2c5c:	e5 06       	cpc	r14, r21
    2c5e:	58 04       	cpc	r5, r8
    2c60:	59 06       	cpc	r5, r25
    2c62:	58 06       	cpc	r5, r24
    2c64:	00 00       	nop
    2c66:	00 00       	nop
    2c68:	7a 07       	cpc	r23, r26
    2c6a:	5b 57       	subi	r21, 0x7B	; 123
    2c6c:	69 46       	sbci	r22, 0x69	; 105
    2c6e:	69 45       	sbci	r22, 0x59	; 89
    2c70:	73 70       	andi	r23, 0x03	; 3
    2c72:	5d 20       	and	r5, r13
    2c74:	00 58       	subi	r16, 0x80	; 128
    2c76:	00 58       	subi	r16, 0x80	; 128
    2c78:	3a 00       	.word	0x003a	; ????
    2c7a:	20 59       	subi	r18, 0x90	; 144
    2c7c:	3a 00       	.word	0x003a	; ????
    2c7e:	20 5a       	subi	r18, 0xA0	; 160
    2c80:	3a 00       	.word	0x003a	; ????
    2c82:	59 00       	.word	0x0059	; ????
    2c84:	5a 00       	.word	0x005a	; ????
    2c86:	43 4e       	sbci	r20, 0xE3	; 227
    2c88:	43 20       	and	r4, r3
    2c8a:	4c 61       	ori	r20, 0x1C	; 28
    2c8c:	73 65       	ori	r23, 0x53	; 83
    2c8e:	72 20       	and	r7, r2
    2c90:	43 75       	andi	r20, 0x53	; 83
    2c92:	74 74       	andi	r23, 0x44	; 68
    2c94:	65 72       	andi	r22, 0x25	; 37
    2c96:	00 58       	subi	r16, 0x80	; 128
    2c98:	3a 30       	cpi	r19, 0x0A	; 10
    2c9a:	20 59       	subi	r18, 0x90	; 144
    2c9c:	3a 30       	cpi	r19, 0x0A	; 10
    2c9e:	20 5a       	subi	r18, 0xA0	; 160
    2ca0:	3a 30       	cpi	r19, 0x0A	; 10
    2ca2:	00 79       	andi	r16, 0x90	; 144
    2ca4:	6f 75       	andi	r22, 0x5F	; 95
    2ca6:	72 50       	subi	r23, 0x02	; 2
    2ca8:	41 53       	subi	r20, 0x31	; 49
    2caa:	53 57       	subi	r21, 0x73	; 115
    2cac:	4f 52       	subi	r20, 0x2F	; 47
    2cae:	44 00       	.word	0x0044	; ????
    2cb0:	79 6f       	ori	r23, 0xF9	; 249
    2cb2:	75 72       	andi	r23, 0x25	; 37
    2cb4:	53 53       	subi	r21, 0x33	; 51
    2cb6:	49 44       	sbci	r20, 0x49	; 73
    2cb8:	00 43       	sbci	r16, 0x30	; 48
    2cba:	6f 6e       	ori	r22, 0xEF	; 239
    2cbc:	6e 65       	ori	r22, 0x5E	; 94
    2cbe:	63 74       	andi	r22, 0x43	; 67
    2cc0:	69 6e       	ori	r22, 0xE9	; 233
    2cc2:	67 20       	and	r6, r7
    2cc4:	57 69       	ori	r21, 0x97	; 151
    2cc6:	46 69       	ori	r20, 0x96	; 150
    2cc8:	2e 2e       	mov	r2, r30
    2cca:	2e 00       	.word	0x002e	; ????
    2ccc:	43 6f       	ori	r20, 0xF3	; 243
    2cce:	6e 6e       	ori	r22, 0xEE	; 238
    2cd0:	65 63       	ori	r22, 0x35	; 53
    2cd2:	74 69       	ori	r23, 0x94	; 148
    2cd4:	6e 67       	ori	r22, 0x7E	; 126
    2cd6:	2e 2e       	mov	r2, r30
    2cd8:	2e 00       	.word	0x002e	; ????
    2cda:	57 69       	ori	r21, 0x97	; 151
    2cdc:	46 69       	ori	r20, 0x96	; 150
    2cde:	20 43       	sbci	r18, 0x30	; 48
    2ce0:	6f 6e       	ori	r22, 0xEF	; 239
    2ce2:	6e 65       	ori	r22, 0x5E	; 94
    2ce4:	63 74       	andi	r22, 0x43	; 67
    2ce6:	65 64       	ori	r22, 0x45	; 69
    2ce8:	20 20       	and	r2, r0
    2cea:	20 00       	.word	0x0020	; ????
    2cec:	4c 61       	ori	r20, 0x1C	; 28
    2cee:	73 65       	ori	r23, 0x53	; 83
    2cf0:	72 20       	and	r7, r2
    2cf2:	4f 66       	ori	r20, 0x6F	; 111
    2cf4:	66 20       	and	r6, r6
    2cf6:	28 49       	sbci	r18, 0x98	; 152
    2cf8:	6e 61       	ori	r22, 0x1E	; 30
    2cfa:	63 74       	andi	r22, 0x43	; 67
    2cfc:	76 29       	or	r23, r6
    2cfe:	00 0d       	add	r16, r0
    2d00:	0a 4f       	sbci	r16, 0xFA	; 250
    2d02:	4b 0d       	add	r20, r11
    2d04:	0a 00       	.word	0x000a	; ????
    2d06:	0d 0a       	sbc	r0, r29
    2d08:	45 52       	subi	r20, 0x25	; 37
    2d0a:	52 4f       	sbci	r21, 0xF2	; 242
    2d0c:	52 0d       	add	r21, r2
    2d0e:	0a 00       	.word	0x000a	; ????
    2d10:	0d 0a       	sbc	r0, r29
    2d12:	46 41       	sbci	r20, 0x16	; 22
    2d14:	49 4c       	sbci	r20, 0xC9	; 201
    2d16:	0d 0a       	sbc	r0, r29
    2d18:	00 0d       	add	r16, r0
    2d1a:	0a 53       	subi	r16, 0x3A	; 58
    2d1c:	45 4e       	sbci	r20, 0xE5	; 229
    2d1e:	44 20       	and	r4, r4
    2d20:	4f 4b       	sbci	r20, 0xBF	; 191
    2d22:	0d 0a       	sbc	r0, r29
    2d24:	00 20       	and	r0, r0
    2d26:	43 4f       	sbci	r20, 0xF3	; 243
    2d28:	4e 4e       	sbci	r20, 0xEE	; 238
    2d2a:	45 43       	sbci	r20, 0x35	; 53
    2d2c:	54 0d       	add	r21, r4
    2d2e:	0a 00       	.word	0x000a	; ????
